(lp0
(lp1
(lp2
I22
a(lp3
I0
aI3
aI3
aI7
aI1
aI9
aI2
aI0
aI2
aI0
aI0
aI2
aI0
aI0
aI0
aI0
aI3
aI0
aI0
aI2
aI0
aI2
aI0
aI0
aI0
aI0
aI1
aI0
aI3
aI1
aI0
aI0
aI1
aI0
aI3
aI0
aI2
aI0
aI0
aI6
aI0
aI0
aI0
aI3
aI0
aI2
aI0
aI0
aI6
aI0
aI3
aI4
aI0
aI0
aI0
aI0
aI3
aI1
aI0
aI3
aaa(lp4
I7
a(lp5
I4
aI0
aI7
aI6
aI5
aI5
aI9
aI5
aI5
aI0
aI0
aI6
aI0
aI1
aI0
aI1
aI2
aI3
aI10
aI7
aI10
aI2
aI10
aI3
aI4
aI0
aI0
aI1
aI3
aI5
aI10
aI2
aI10
aI6
aI5
aI9
aI3
aI3
aI5
aI6
aI4
aI9
aI0
aI7
aI6
aI6
aI4
aI9
aI0
aI5
aI2
aI6
aI9
aI9
aI6
aI9
aI3
aI8
aI4
aI1
aaa(lp6
I3
a(lp7
I3
aI0
aI4
aI3
aI9
aI5
aI0
aI2
aI10
aI0
aI3
aI9
aI0
aI0
aI0
aI6
aI3
aI0
aI0
aI6
aI0
aI5
aI9
aI1
aI0
aI5
aI0
aI1
aI9
aI0
aI7
aI4
aI8
aI2
aI5
aI3
aI2
aI2
aI10
aI7
aI8
aI3
aI4
aI3
aI3
aI7
aI3
aI6
aI0
aI5
aI6
aI1
aI0
aI6
aI8
aI9
aI3
aI0
aI8
aI3
aaa(lp8
I6
a(lp9
I4
aI0
aI3
aI3
aI5
aI3
aI1
aI0
aI9
aI0
aI3
aI8
aI0
aI0
aI0
aI9
aI0
aI2
aI1
aI6
aI1
aI2
aI6
aI1
aI0
aI7
aI0
aI2
aI1
aI0
aI7
aI1
aI8
aI8
aI5
aI3
aI1
aI2
aI10
aI7
aI8
aI5
aI4
aI3
aI3
aI7
aI5
aI6
aI0
aI3
aI6
aI1
aI0
aI4
aI0
aI5
aI0
aI1
aI7
aI3
aaa(lp10
I20
a(lp11
I2
aI0
aI2
aI3
aI3
aI5
aI0
aI3
aI0
aI2
aI3
aI6
aI1
aI0
aI2
aI5
aI0
aI5
aI0
aI2
aI5
aI5
aI0
aI0
aI0
aI4
aI0
aI1
aI2
aI0
aI4
aI3
aI2
aI5
aI8
aI6
aI0
aI6
aI0
aI2
aI6
aI5
aI5
aI3
aI1
aI7
aI2
aI6
aI2
aI0
aI3
aI1
aI1
aI8
aI0
aI0
aI0
aI0
aI9
aI0
aaa(lp12
I9
a(lp13
I4
aI0
aI10
aI5
aI7
aI3
aI7
aI5
aI7
aI0
aI0
aI9
aI1
aI1
aI3
aI0
aI7
aI0
aI10
aI7
aI10
aI5
aI10
aI5
aI3
aI0
aI0
aI4
aI1
aI3
aI10
aI3
aI0
aI8
aI5
aI9
aI5
aI2
aI5
aI9
aI1
aI3
aI0
aI6
aI4
aI6
aI1
aI7
aI3
aI4
aI0
aI6
aI7
aI9
aI9
aI9
aI5
aI7
aI5
aI6
aaa(lp14
I12
a(lp15
I3
aI7
aI6
aI0
aI10
aI7
aI8
aI5
aI6
aI9
aI0
aI9
aI9
aI3
aI2
aI6
aI1
aI1
aI10
aI5
aI10
aI2
aI7
aI8
aI7
aI8
aI3
aI6
aI9
aI7
aI2
aI6
aI10
aI3
aI7
aI9
aI10
aI3
aI6
aI2
aI1
aI6
aI0
aI0
aI5
aI0
aI6
aI9
aI3
aI4
aI1
aI2
aI1
aI9
aI2
aI0
aI5
aI9
aI8
aI9
aaa(lp16
I17
a(lp17
I1
aI8
aI10
aI4
aI8
aI5
aI7
aI3
aI5
aI7
aI1
aI8
aI9
aI1
aI0
aI9
aI4
aI5
aI8
aI7
aI9
aI1
aI10
aI4
aI4
aI4
aI1
aI0
aI0
aI7
aI8
aI4
aI10
aI4
aI8
aI9
aI5
aI4
aI6
aI1
aI5
aI6
aI1
aI4
aI7
aI4
aI5
aI7
aI0
aI7
aI2
aI5
aI6
aI9
aI3
aI9
aI3
aI6
aI5
aI3
aaa(lp18
I5
a(lp19
I0
aI6
aI6
aI6
aI10
aI0
aI3
aI4
aI5
aI8
aI0
aI9
aI7
aI3
aI0
aI6
aI0
aI2
aI10
aI5
aI10
aI2
aI10
aI6
aI10
aI9
aI0
aI8
aI10
aI7
aI2
aI7
aI8
aI6
aI6
aI7
aI10
aI3
aI9
aI4
aI0
aI8
aI0
aI1
aI5
aI0
aI8
aI7
aI3
aI3
aI2
aI3
aI0
aI8
aI3
aI3
aI5
aI2
aI7
aI6
aaa(lp20
I1
a(lp21
I4
aI0
aI0
aI5
aI6
aI0
aI1
aI2
aI3
aI1
aI6
aI7
aI0
aI0
aI0
aI8
aI0
aI5
aI0
aI3
aI4
aI2
aI0
aI0
aI0
aI6
aI0
aI0
aI4
aI0
aI6
aI1
aI0
aI5
aI6
aI3
aI0
aI3
aI9
aI0
aI8
aI5
aI5
aI3
aI2
aI7
aI5
aI4
aI0
aI3
aI3
aI0
aI0
aI7
aI0
aI2
aI0
aI1
aI7
aI3
aaa(lp22
I12
a(lp23
I0
aI0
aI0
aI0
aI0
aI0
aI0
aI0
aI0
aI0
aI0
aI0
aI0
aI0
aI0
aI0
aI0
aI0
aI0
aI0
aI0
aI0
aI0
aI0
aI0
aI0
aI0
aI0
aI0
aI0
aI0
aI0
aI0
aI0
aI0
aI0
aI0
aI0
aI0
aI0
aI0
aI0
aI0
aI0
aI0
aI0
aI0
aI0
aI0
aI0
aI0
aI0
aI0
aI0
aI0
aI0
aI0
aI0
aI0
aI0
aaa(lp24
I21
a(lp25
I2
aI0
aI10
aI2
aI10
aI6
aI4
aI3
aI10
aI1
aI5
aI9
aI2
aI3
aI0
aI4
aI5
aI3
aI7
aI5
aI8
aI4
aI10
aI2
aI5
aI1
aI0
aI2
aI5
aI3
aI10
aI1
aI2
aI8
aI7
aI8
aI1
aI7
aI7
aI8
aI3
aI1
aI1
aI5
aI3
aI6
aI0
aI8
aI0
aI6
aI0
aI6
aI1
aI9
aI7
aI9
aI5
aI6
aI10
aI6
aaa(lp26
I6
a(lp27
I3
aI7
aI7
aI1
aI9
aI5
aI9
aI5
aI3
aI9
aI0
aI9
aI10
aI3
aI5
aI8
aI1
aI3
aI10
aI7
aI10
aI5
aI10
aI8
aI7
aI1
aI1
aI7
aI0
aI9
aI6
aI5
aI10
aI4
aI9
aI9
aI8
aI2
aI8
aI2
aI8
aI3
aI2
aI1
aI4
aI2
aI8
aI7
aI1
aI5
aI2
aI2
aI3
aI9
aI2
aI9
aI1
aI8
aI8
aI9
aaa(lp28
I27
a(lp29
I4
aI1
aI7
aI2
aI10
aI3
aI0
aI2
aI10
aI0
aI4
aI9
aI3
aI0
aI2
aI6
aI4
aI3
aI2
aI9
aI1
aI8
aI10
aI1
aI3
aI2
aI0
aI2
aI10
aI3
aI7
aI2
aI6
aI4
aI7
aI3
aI2
aI6
aI10
aI9
aI5
aI4
aI1
aI4
aI6
aI7
aI1
aI5
aI0
aI2
aI1
aI0
aI0
aI9
aI3
aI9
aI3
aI0
aI9
aI3
aaa(lp30
I20
a(lp31
I3
aI0
aI3
aI8
aI3
aI2
aI0
aI6
aI3
aI0
aI0
aI3
aI0
aI0
aI0
aI3
aI0
aI3
aI2
aI4
aI5
aI3
aI0
aI0
aI2
aI1
aI0
aI0
aI6
aI0
aI2
aI0
aI2
aI8
aI5
aI4
aI2
aI3
aI0
aI5
aI3
aI3
aI0
aI2
aI1
aI5
aI3
aI0
aI5
aI0
aI3
aI3
aI0
aI1
aI0
aI0
aI1
aI0
aI1
aI3
aaa(lp32
I6
a(lp33
I5
aI1
aI10
aI5
aI9
aI7
aI4
aI7
aI7
aI0
aI2
aI9
aI4
aI1
aI0
aI2
aI7
aI1
aI10
aI4
aI10
aI5
aI10
aI8
aI5
aI0
aI0
aI4
aI4
aI3
aI10
aI1
aI0
aI8
aI6
aI7
aI1
aI9
aI4
aI7
aI1
aI2
aI1
aI6
aI6
aI5
aI4
aI9
aI0
aI7
aI0
aI3
aI1
aI9
aI8
aI9
aI4
aI8
aI9
aI6
aaa(lp34
I6
a(lp35
I4
aI1
aI8
aI2
aI10
aI2
aI3
aI3
aI10
aI0
aI4
aI8
aI1
aI0
aI0
aI4
aI6
aI2
aI4
aI9
aI5
aI7
aI9
aI3
aI4
aI2
aI0
aI4
aI8
aI1
aI8
aI0
aI6
aI7
aI7
aI8
aI1
aI6
aI10
aI9
aI3
aI3
aI1
aI3
aI3
aI7
aI1
aI8
aI0
aI6
aI0
aI3
aI0
aI9
aI6
aI6
aI5
aI6
aI9
aI2
aaaa(lp36
g4
ag12
ag30
ag26
ag28
ag24
ag8
ag32
ag2
ag6
ag34
ag22
ag16
ag20
ag18
ag14
ag10
aa(lp37
g20
ag30
ag22
ag8
ag32
ag4
ag16
ag18
ag14
ag24
ag6
ag26
ag10
ag2
ag28
ag34
ag12
aa(lp38
g24
ag22
ag16
ag4
ag2
ag8
ag34
ag32
ag20
ag12
ag26
ag30
ag10
ag14
ag6
ag18
ag28
aa(lp39
g10
ag12
ag2
ag32
ag4
ag24
ag16
ag30
ag26
ag34
ag20
ag8
ag28
ag22
ag18
ag6
ag14
aa(lp40
g6
ag4
ag32
ag16
ag10
ag20
ag18
ag28
ag8
ag34
ag30
ag14
ag22
ag26
ag2
ag12
ag24
aa(lp41
g10
ag26
ag2
ag6
ag16
ag24
ag32
ag34
ag18
ag30
ag22
ag4
ag14
ag20
ag12
ag28
ag8
aa(lp42
g32
ag12
ag34
ag18
ag10
ag14
ag2
ag28
ag22
ag4
ag30
ag20
ag24
ag26
ag8
ag16
ag6
aa(lp43
g4
ag18
ag8
ag28
ag16
ag14
ag20
ag10
ag22
ag24
ag12
ag34
ag2
ag26
ag32
ag6
ag30
aa(lp44
g34
ag28
ag10
ag16
ag4
ag12
ag32
ag14
ag26
ag22
ag24
ag18
ag8
ag30
ag2
ag20
ag6
aa(lp45
g28
ag8
ag20
ag14
ag12
ag26
ag10
ag32
ag30
ag4
ag6
ag16
ag24
ag18
ag2
ag22
ag34
aa(lp46
g10
ag32
ag26
ag22
ag12
ag14
ag30
ag24
ag8
ag18
ag6
ag16
ag2
ag28
ag4
ag20
ag34
aa(lp47
g26
ag24
ag30
ag4
ag28
ag16
ag20
ag8
ag32
ag12
ag2
ag18
ag22
ag14
ag6
ag10
ag34
aa(lp48
g34
ag28
ag12
ag18
ag16
ag2
ag24
ag10
ag6
ag30
ag22
ag14
ag32
ag26
ag4
ag20
ag8
aa(lp49
g32
ag18
ag24
ag2
ag8
ag14
ag6
ag16
ag26
ag34
ag22
ag28
ag20
ag4
ag30
ag12
ag10
aa(lp50
g4
ag10
ag28
ag30
ag32
ag12
ag8
ag16
ag22
ag2
ag20
ag18
ag34
ag6
ag14
ag26
ag24
aa(lp51
g30
ag18
ag14
ag28
ag24
ag10
ag16
ag34
ag4
ag12
ag2
ag22
ag26
ag6
ag32
ag8
ag20
aa(lp52
g10
ag12
ag34
ag2
ag32
ag28
ag22
ag8
ag26
ag16
ag24
ag18
ag30
ag20
ag6
ag14
ag4
aa(lp53
g4
ag10
ag34
ag6
ag16
ag20
ag8
ag14
ag26
ag24
ag30
ag22
ag12
ag32
ag2
ag18
ag28
aa(lp54
g28
ag32
ag8
ag30
ag16
ag22
ag34
ag4
ag14
ag20
ag2
ag6
ag12
ag18
ag10
ag26
ag24
aa(lp55
g20
ag32
ag16
ag24
ag4
ag30
ag22
ag14
ag6
ag28
ag18
ag34
ag2
ag8
ag12
ag10
ag26
aa(lp56
g28
ag32
ag30
ag20
ag12
ag6
ag18
ag2
ag14
ag4
ag16
ag8
ag22
ag24
ag34
ag26
ag10
aa(lp57
g24
ag10
ag32
ag6
ag34
ag8
ag4
ag20
ag26
ag28
ag30
ag18
ag2
ag16
ag14
ag12
ag22
aa(lp58
g18
ag32
ag16
ag24
ag8
ag22
ag12
ag14
ag30
ag6
ag34
ag28
ag10
ag26
ag2
ag4
ag20
aa(lp59
g24
ag20
ag30
ag26
ag4
ag2
ag32
ag28
ag10
ag16
ag34
ag8
ag6
ag12
ag18
ag14
ag22
aa(lp60
g34
ag10
ag30
ag12
ag32
ag18
ag2
ag22
ag6
ag26
ag8
ag28
ag20
ag16
ag14
ag24
ag4
aa(lp61
g2
ag34
ag32
ag26
ag16
ag24
ag10
ag8
ag20
ag28
ag14
ag6
ag4
ag18
ag22
ag12
ag30
aa(lp62
g10
ag16
ag8
ag6
ag26
ag30
ag2
ag22
ag32
ag4
ag24
ag18
ag34
ag12
ag20
ag28
ag14
aa(lp63
g6
ag18
ag30
ag22
ag34
ag14
ag28
ag8
ag4
ag20
ag24
ag12
ag32
ag2
ag10
ag16
ag26
aa(lp64
g32
ag8
ag12
ag18
ag28
ag14
ag10
ag20
ag16
ag4
ag2
ag24
ag6
ag26
ag30
ag22
ag34
aa(lp65
g2
ag22
ag14
ag32
ag16
ag18
ag4
ag10
ag6
ag12
ag8
ag20
ag24
ag26
ag34
ag30
ag28
aa(lp66
g26
ag20
ag28
ag12
ag32
ag6
ag10
ag8
ag22
ag30
ag14
ag16
ag2
ag4
ag34
ag24
ag18
aa(lp67
g6
ag34
ag8
ag14
ag2
ag12
ag4
ag16
ag18
ag30
ag22
ag20
ag24
ag10
ag26
ag28
ag32
aa(lp68
g22
ag10
ag2
ag20
ag34
ag24
ag8
ag6
ag26
ag16
ag14
ag32
ag28
ag18
ag4
ag12
ag30
aa(lp69
g16
ag14
ag24
ag2
ag30
ag34
ag8
ag32
ag20
ag6
ag22
ag4
ag28
ag10
ag18
ag12
ag26
aa(lp70
g24
ag18
ag28
ag22
ag26
ag6
ag14
ag34
ag16
ag4
ag8
ag12
ag20
ag2
ag32
ag10
ag30
aa(lp71
g20
ag32
ag8
ag10
ag6
ag18
ag2
ag26
ag30
ag12
ag34
ag4
ag22
ag28
ag24
ag16
ag14
aa(lp72
g4
ag12
ag20
ag22
ag6
ag16
ag18
ag2
ag32
ag28
ag30
ag10
ag34
ag8
ag24
ag26
ag14
aa(lp73
g28
ag14
ag12
ag2
ag20
ag16
ag6
ag32
ag26
ag18
ag34
ag4
ag10
ag8
ag24
ag22
ag30
aa(lp74
g26
ag32
ag18
ag30
ag34
ag4
ag24
ag12
ag6
ag2
ag14
ag8
ag20
ag16
ag28
ag10
ag22
aa(lp75
g10
ag30
ag20
ag28
ag32
ag4
ag34
ag26
ag6
ag24
ag8
ag16
ag22
ag18
ag2
ag14
ag12
aa(lp76
g10
ag6
ag16
ag8
ag24
ag22
ag30
ag18
ag20
ag28
ag32
ag4
ag2
ag34
ag14
ag26
ag12
aa(lp77
g16
ag26
ag12
ag22
ag6
ag4
ag32
ag20
ag28
ag8
ag34
ag30
ag14
ag10
ag2
ag24
ag18
aa(lp78
g20
ag2
ag24
ag14
ag6
ag10
ag28
ag34
ag4
ag8
ag22
ag32
ag16
ag26
ag18
ag30
ag12
aa(lp79
g14
ag2
ag30
ag18
ag16
ag22
ag12
ag20
ag10
ag28
ag8
ag6
ag26
ag32
ag34
ag4
ag24
aa(lp80
g34
ag10
ag18
ag16
ag2
ag14
ag30
ag4
ag28
ag8
ag6
ag12
ag22
ag32
ag26
ag24
ag20
aa(lp81
g24
ag2
ag14
ag20
ag26
ag34
ag12
ag4
ag18
ag32
ag28
ag6
ag30
ag10
ag8
ag16
ag22
aa(lp82
g32
ag28
ag6
ag22
ag30
ag20
ag8
ag16
ag12
ag14
ag24
ag26
ag10
ag34
ag18
ag2
ag4
aa(lp83
g16
ag14
ag8
ag12
ag6
ag10
ag2
ag22
ag34
ag32
ag24
ag20
ag18
ag28
ag26
ag4
ag30
aa(lp84
g34
ag4
ag26
ag6
ag16
ag12
ag20
ag14
ag22
ag18
ag30
ag2
ag8
ag10
ag24
ag28
ag32
aa(lp85
g22
ag6
ag24
ag18
ag12
ag20
ag34
ag30
ag10
ag16
ag32
ag14
ag26
ag4
ag2
ag28
ag8
aa(lp86
g4
ag20
ag16
ag24
ag22
ag2
ag30
ag34
ag14
ag26
ag10
ag8
ag18
ag32
ag6
ag12
ag28
aa(lp87
g26
ag32
ag34
ag24
ag16
ag20
ag14
ag4
ag8
ag12
ag28
ag10
ag2
ag6
ag22
ag30
ag18
aa(lp88
g20
ag24
ag14
ag10
ag30
ag12
ag4
ag16
ag34
ag8
ag26
ag22
ag6
ag28
ag2
ag18
ag32
aa(lp89
g26
ag8
ag24
ag20
ag18
ag32
ag22
ag10
ag4
ag12
ag14
ag34
ag16
ag2
ag28
ag30
ag6
aa(lp90
g22
ag6
ag14
ag18
ag12
ag4
ag24
ag26
ag16
ag32
ag8
ag10
ag28
ag20
ag2
ag30
ag34
aa(lp91
g32
ag8
ag14
ag6
ag24
ag10
ag18
ag22
ag34
ag30
ag2
ag12
ag20
ag26
ag4
ag16
ag28
aa(lp92
g22
ag18
ag16
ag30
ag24
ag28
ag32
ag14
ag2
ag10
ag6
ag4
ag12
ag34
ag20
ag8
ag26
aa(lp93
g2
ag20
ag14
ag4
ag12
ag10
ag18
ag6
ag26
ag30
ag34
ag28
ag32
ag24
ag8
ag16
ag22
aa(lp94
g22
ag26
ag28
ag18
ag2
ag34
ag10
ag20
ag4
ag30
ag12
ag8
ag14
ag6
ag16
ag32
ag24
aa(lp95
g20
ag18
ag28
ag10
ag22
ag34
ag12
ag8
ag6
ag16
ag32
ag24
ag4
ag14
ag26
ag30
ag2
aa(lp96
g22
ag14
ag4
ag10
ag26
ag30
ag28
ag2
ag6
ag8
ag32
ag18
ag12
ag20
ag24
ag34
ag16
aa(lp97
g18
ag14
ag30
ag8
ag2
ag32
ag12
ag28
ag10
ag4
ag6
ag26
ag24
ag34
ag16
ag22
ag20
aa(lp98
g22
ag4
ag12
ag18
ag26
ag34
ag10
ag8
ag14
ag6
ag30
ag2
ag24
ag32
ag16
ag28
ag20
aa(lp99
g2
ag34
ag24
ag20
ag30
ag18
ag10
ag28
ag16
ag14
ag4
ag12
ag26
ag8
ag6
ag22
ag32
aa(lp100
g2
ag30
ag20
ag16
ag18
ag14
ag26
ag12
ag4
ag6
ag34
ag8
ag10
ag28
ag24
ag22
ag32
aa(lp101
g28
ag6
ag22
ag2
ag8
ag10
ag26
ag4
ag34
ag14
ag24
ag32
ag20
ag16
ag18
ag30
ag12
aa(lp102
g30
ag34
ag2
ag14
ag26
ag12
ag6
ag16
ag24
ag20
ag32
ag28
ag8
ag10
ag18
ag4
ag22
aa(lp103
g30
ag10
ag28
ag20
ag12
ag4
ag18
ag8
ag34
ag22
ag32
ag6
ag16
ag24
ag2
ag26
ag14
aa(lp104
g24
ag26
ag16
ag12
ag20
ag10
ag32
ag30
ag6
ag2
ag4
ag34
ag14
ag28
ag8
ag18
ag22
aa(lp105
g24
ag14
ag10
ag34
ag30
ag2
ag8
ag28
ag4
ag26
ag32
ag6
ag18
ag22
ag20
ag12
ag16
aa(lp106
g34
ag2
ag10
ag32
ag30
ag18
ag16
ag4
ag26
ag24
ag8
ag22
ag6
ag20
ag14
ag12
ag28
aa(lp107
g10
ag22
ag16
ag4
ag14
ag24
ag12
ag26
ag32
ag6
ag28
ag8
ag18
ag20
ag34
ag2
ag30
aa(lp108
g18
ag34
ag4
ag10
ag26
ag14
ag2
ag30
ag8
ag16
ag24
ag22
ag6
ag32
ag28
ag20
ag12
aa(lp109
g12
ag34
ag8
ag4
ag18
ag26
ag10
ag28
ag16
ag2
ag20
ag24
ag22
ag32
ag14
ag30
ag6
aa(lp110
g10
ag20
ag2
ag16
ag26
ag18
ag32
ag6
ag30
ag34
ag28
ag24
ag14
ag8
ag4
ag12
ag22
aa(lp111
g26
ag14
ag4
ag2
ag32
ag28
ag34
ag16
ag6
ag20
ag12
ag18
ag22
ag8
ag30
ag10
ag24
aa(lp112
g24
ag30
ag20
ag2
ag22
ag6
ag26
ag4
ag32
ag14
ag18
ag8
ag28
ag10
ag16
ag34
ag12
aa(lp113
g22
ag30
ag4
ag28
ag14
ag26
ag12
ag10
ag18
ag8
ag32
ag20
ag34
ag2
ag24
ag6
ag16
aa(lp114
g4
ag26
ag24
ag20
ag10
ag2
ag16
ag12
ag34
ag28
ag30
ag8
ag18
ag22
ag32
ag6
ag14
aa(lp115
g30
ag32
ag26
ag34
ag8
ag4
ag24
ag6
ag14
ag18
ag2
ag16
ag10
ag22
ag28
ag20
ag12
aa(lp116
g18
ag4
ag2
ag20
ag16
ag8
ag10
ag14
ag32
ag6
ag28
ag24
ag12
ag22
ag30
ag26
ag34
aa(lp117
g18
ag20
ag24
ag10
ag8
ag28
ag6
ag16
ag22
ag30
ag34
ag4
ag14
ag32
ag2
ag12
ag26
aa(lp118
g34
ag26
ag20
ag8
ag14
ag2
ag12
ag22
ag10
ag4
ag16
ag18
ag28
ag24
ag32
ag6
ag30
aa(lp119
g20
ag34
ag32
ag10
ag30
ag12
ag16
ag24
ag14
ag26
ag22
ag18
ag2
ag8
ag6
ag28
ag4
aa(lp120
g6
ag2
ag28
ag10
ag14
ag24
ag4
ag34
ag26
ag12
ag18
ag16
ag30
ag20
ag8
ag32
ag22
aa(lp121
g2
ag28
ag30
ag8
ag4
ag18
ag34
ag26
ag32
ag14
ag16
ag6
ag12
ag20
ag10
ag22
ag24
aa(lp122
g34
ag26
ag12
ag32
ag30
ag8
ag28
ag22
ag16
ag18
ag24
ag6
ag10
ag20
ag2
ag14
ag4
aa(lp123
g32
ag2
ag24
ag6
ag12
ag4
ag22
ag30
ag34
ag10
ag16
ag14
ag20
ag8
ag18
ag26
ag28
aa(lp124
g18
ag12
ag26
ag16
ag28
ag10
ag8
ag4
ag34
ag32
ag2
ag22
ag6
ag24
ag14
ag30
ag20
aa(lp125
g6
ag24
ag8
ag16
ag20
ag2
ag4
ag18
ag34
ag22
ag30
ag10
ag26
ag28
ag14
ag12
ag32
aa(lp126
g24
ag12
ag18
ag26
ag6
ag8
ag2
ag22
ag14
ag10
ag28
ag20
ag34
ag30
ag16
ag4
ag32
aa(lp127
g12
ag20
ag26
ag2
ag28
ag30
ag32
ag8
ag4
ag22
ag24
ag10
ag18
ag14
ag16
ag34
ag6
aa(lp128
g20
ag16
ag12
ag10
ag8
ag4
ag6
ag26
ag18
ag30
ag32
ag22
ag34
ag24
ag2
ag14
ag28
aa(lp129
g22
ag34
ag30
ag4
ag14
ag10
ag28
ag18
ag26
ag6
ag20
ag8
ag12
ag24
ag32
ag16
ag2
aa(lp130
g24
ag18
ag8
ag22
ag4
ag30
ag28
ag16
ag20
ag14
ag26
ag12
ag10
ag6
ag34
ag32
ag2
aa(lp131
g14
ag4
ag2
ag24
ag12
ag18
ag10
ag16
ag22
ag30
ag8
ag28
ag26
ag20
ag34
ag32
ag6
aa(lp132
g2
ag8
ag28
ag32
ag14
ag22
ag4
ag16
ag24
ag6
ag18
ag10
ag20
ag12
ag26
ag34
ag30
aa(lp133
g2
ag28
ag32
ag30
ag16
ag6
ag22
ag24
ag10
ag26
ag20
ag34
ag8
ag18
ag14
ag12
ag4
aa(lp134
g2
ag6
ag16
ag10
ag20
ag24
ag28
ag18
ag30
ag8
ag22
ag26
ag14
ag32
ag34
ag12
ag4
aa(lp135
g4
ag6
ag26
ag32
ag18
ag10
ag28
ag14
ag34
ag24
ag22
ag16
ag8
ag30
ag12
ag2
ag20
aa(lp136
g24
ag6
ag26
ag34
ag30
ag28
ag2
ag12
ag20
ag32
ag14
ag22
ag16
ag10
ag4
ag8
ag18
aa(lp137
g32
ag18
ag30
ag12
ag10
ag4
ag28
ag6
ag24
ag8
ag22
ag26
ag20
ag16
ag14
ag34
ag2
aa(lp138
g24
ag8
ag34
ag12
ag28
ag20
ag14
ag22
ag32
ag4
ag6
ag26
ag2
ag10
ag30
ag16
ag18
aa(lp139
g8
ag10
ag14
ag34
ag18
ag32
ag20
ag30
ag24
ag6
ag22
ag2
ag12
ag16
ag4
ag26
ag28
aa(lp140
g14
ag30
ag6
ag26
ag24
ag18
ag10
ag28
ag2
ag22
ag16
ag4
ag8
ag20
ag12
ag34
ag32
aa(lp141
g28
ag24
ag4
ag30
ag14
ag2
ag34
ag18
ag32
ag16
ag20
ag8
ag12
ag6
ag22
ag26
ag10
aa(lp142
g30
ag12
ag10
ag18
ag8
ag4
ag24
ag16
ag14
ag2
ag20
ag34
ag32
ag22
ag28
ag6
ag26
aa(lp143
g24
ag16
ag32
ag8
ag2
ag18
ag34
ag6
ag22
ag28
ag14
ag30
ag12
ag26
ag4
ag20
ag10
aa(lp144
g8
ag18
ag12
ag22
ag26
ag14
ag34
ag4
ag2
ag30
ag28
ag6
ag10
ag20
ag32
ag16
ag24
aa(lp145
g30
ag6
ag10
ag24
ag34
ag26
ag20
ag4
ag32
ag14
ag12
ag2
ag8
ag16
ag18
ag28
ag22
aa(lp146
g4
ag8
ag22
ag24
ag32
ag20
ag6
ag16
ag10
ag12
ag18
ag26
ag34
ag28
ag30
ag2
ag14
aa(lp147
g12
ag10
ag2
ag32
ag14
ag34
ag18
ag22
ag20
ag8
ag24
ag16
ag26
ag4
ag28
ag6
ag30
aa(lp148
g28
ag24
ag22
ag30
ag14
ag12
ag34
ag32
ag20
ag6
ag10
ag18
ag2
ag8
ag4
ag16
ag26
aa(lp149
g20
ag28
ag12
ag34
ag10
ag32
ag26
ag22
ag24
ag14
ag4
ag6
ag8
ag16
ag30
ag18
ag2
aa(lp150
g10
ag28
ag14
ag30
ag18
ag20
ag32
ag12
ag26
ag4
ag16
ag8
ag22
ag6
ag34
ag24
ag2
aa(lp151
g30
ag2
ag34
ag6
ag24
ag26
ag16
ag10
ag18
ag8
ag4
ag20
ag12
ag14
ag22
ag32
ag28
aa(lp152
g24
ag16
ag8
ag2
ag18
ag30
ag20
ag10
ag6
ag12
ag32
ag4
ag28
ag26
ag22
ag14
ag34
aa(lp153
g4
ag8
ag10
ag12
ag2
ag6
ag16
ag24
ag26
ag32
ag34
ag30
ag22
ag20
ag18
ag14
ag28
aa(lp154
g10
ag26
ag34
ag18
ag30
ag32
ag16
ag4
ag14
ag28
ag24
ag22
ag8
ag12
ag20
ag2
ag6
aa(lp155
g24
ag20
ag4
ag30
ag14
ag34
ag32
ag8
ag22
ag12
ag2
ag28
ag18
ag26
ag10
ag6
ag16
aa(lp156
g16
ag22
ag14
ag20
ag18
ag30
ag2
ag12
ag8
ag4
ag10
ag24
ag34
ag26
ag6
ag32
ag28
aa(lp157
g28
ag14
ag16
ag18
ag30
ag10
ag6
ag8
ag2
ag20
ag22
ag26
ag34
ag24
ag12
ag32
ag4
aa(lp158
g2
ag12
ag8
ag26
ag18
ag24
ag32
ag16
ag4
ag20
ag30
ag10
ag14
ag34
ag28
ag22
ag6
aa(lp159
g28
ag8
ag14
ag32
ag24
ag34
ag2
ag10
ag4
ag18
ag16
ag26
ag30
ag12
ag20
ag6
ag22
aa(lp160
g24
ag30
ag26
ag14
ag16
ag34
ag22
ag8
ag32
ag20
ag12
ag18
ag6
ag2
ag10
ag28
ag4
aa(lp161
g10
ag26
ag28
ag6
ag34
ag24
ag4
ag20
ag22
ag14
ag2
ag18
ag16
ag12
ag8
ag32
ag30
aa(lp162
g30
ag18
ag24
ag34
ag32
ag10
ag8
ag16
ag26
ag22
ag6
ag20
ag12
ag2
ag14
ag28
ag4
aa(lp163
g24
ag12
ag14
ag8
ag2
ag10
ag34
ag26
ag20
ag16
ag22
ag30
ag18
ag32
ag28
ag6
ag4
aa(lp164
g26
ag32
ag6
ag24
ag4
ag34
ag18
ag2
ag20
ag14
ag12
ag16
ag30
ag22
ag28
ag10
ag8
aa(lp165
g24
ag2
ag22
ag10
ag34
ag20
ag12
ag30
ag32
ag14
ag28
ag4
ag18
ag16
ag6
ag26
ag8
aa(lp166
g2
ag12
ag20
ag14
ag24
ag10
ag16
ag34
ag28
ag32
ag22
ag8
ag26
ag4
ag30
ag18
ag6
aa(lp167
g18
ag20
ag8
ag24
ag16
ag10
ag4
ag2
ag26
ag22
ag14
ag12
ag6
ag28
ag32
ag30
ag34
aa(lp168
g10
ag20
ag14
ag6
ag30
ag4
ag28
ag8
ag32
ag16
ag26
ag18
ag24
ag12
ag34
ag22
ag2
aa(lp169
g10
ag6
ag26
ag34
ag4
ag8
ag32
ag22
ag12
ag14
ag24
ag30
ag2
ag28
ag18
ag16
ag20
aa(lp170
g24
ag22
ag30
ag6
ag34
ag14
ag28
ag2
ag16
ag32
ag12
ag26
ag8
ag20
ag4
ag10
ag18
aa(lp171
g12
ag6
ag4
ag26
ag22
ag28
ag8
ag24
ag34
ag14
ag10
ag30
ag20
ag32
ag18
ag2
ag16
aa(lp172
g16
ag12
ag10
ag14
ag32
ag24
ag4
ag20
ag30
ag8
ag18
ag6
ag2
ag22
ag26
ag28
ag34
aa(lp173
g14
ag16
ag22
ag20
ag2
ag18
ag8
ag24
ag10
ag30
ag12
ag26
ag32
ag4
ag6
ag28
ag34
aa(lp174
g16
ag24
ag4
ag22
ag2
ag18
ag34
ag30
ag14
ag8
ag12
ag28
ag26
ag10
ag32
ag6
ag20
aa(lp175
g18
ag2
ag24
ag14
ag20
ag16
ag10
ag22
ag32
ag4
ag30
ag8
ag26
ag34
ag28
ag12
ag6
aa(lp176
g12
ag16
ag14
ag24
ag28
ag8
ag34
ag32
ag10
ag6
ag4
ag26
ag2
ag20
ag22
ag18
ag30
aa(lp177
g26
ag20
ag22
ag10
ag16
ag6
ag12
ag8
ag34
ag24
ag2
ag4
ag30
ag14
ag32
ag28
ag18
aa(lp178
g6
ag26
ag16
ag14
ag4
ag30
ag24
ag22
ag32
ag34
ag8
ag28
ag10
ag2
ag20
ag12
ag18
aa(lp179
g16
ag28
ag2
ag32
ag24
ag18
ag12
ag22
ag4
ag26
ag34
ag6
ag10
ag14
ag20
ag8
ag30
aa(lp180
g32
ag18
ag6
ag26
ag12
ag22
ag24
ag10
ag2
ag4
ag8
ag14
ag34
ag20
ag16
ag30
ag28
aa(lp181
g18
ag30
ag26
ag12
ag32
ag6
ag20
ag10
ag8
ag16
ag24
ag4
ag22
ag28
ag14
ag34
ag2
aa(lp182
g10
ag20
ag16
ag32
ag6
ag4
ag12
ag24
ag26
ag34
ag14
ag8
ag18
ag2
ag22
ag30
ag28
aa(lp183
g14
ag22
ag2
ag10
ag26
ag6
ag4
ag32
ag28
ag20
ag34
ag8
ag16
ag12
ag24
ag18
ag30
aa(lp184
g20
ag2
ag28
ag14
ag32
ag26
ag18
ag6
ag10
ag12
ag24
ag34
ag16
ag22
ag8
ag30
ag4
aa(lp185
g24
ag8
ag32
ag34
ag28
ag12
ag14
ag22
ag18
ag20
ag4
ag10
ag16
ag2
ag26
ag6
ag30
aa(lp186
g30
ag32
ag18
ag34
ag2
ag26
ag6
ag16
ag12
ag20
ag24
ag14
ag4
ag10
ag22
ag8
ag28
aa(lp187
g28
ag22
ag6
ag26
ag18
ag2
ag34
ag12
ag24
ag30
ag32
ag16
ag14
ag8
ag20
ag4
ag10
aa(lp188
g6
ag30
ag32
ag8
ag24
ag10
ag18
ag16
ag26
ag4
ag22
ag34
ag14
ag12
ag2
ag28
ag20
aa(lp189
g26
ag16
ag2
ag24
ag12
ag20
ag6
ag14
ag30
ag34
ag10
ag22
ag8
ag28
ag32
ag4
ag18
aa(lp190
g24
ag22
ag12
ag14
ag2
ag28
ag4
ag6
ag26
ag10
ag32
ag34
ag30
ag16
ag8
ag18
ag20
aa(lp191
g18
ag26
ag6
ag30
ag24
ag34
ag28
ag4
ag10
ag22
ag14
ag20
ag12
ag8
ag2
ag32
ag16
aa(lp192
g6
ag14
ag30
ag16
ag20
ag28
ag22
ag18
ag8
ag2
ag26
ag4
ag32
ag12
ag34
ag24
ag10
aa(lp193
g4
ag8
ag14
ag28
ag16
ag12
ag30
ag24
ag26
ag32
ag2
ag20
ag34
ag18
ag10
ag6
ag22
aa(lp194
g30
ag10
ag26
ag24
ag8
ag22
ag28
ag18
ag12
ag4
ag32
ag14
ag2
ag20
ag16
ag6
ag34
aa(lp195
g18
ag16
ag20
ag4
ag12
ag8
ag10
ag2
ag34
ag26
ag6
ag30
ag14
ag28
ag24
ag22
ag32
aa(lp196
g20
ag6
ag12
ag14
ag22
ag2
ag30
ag10
ag34
ag18
ag32
ag4
ag16
ag8
ag26
ag24
ag28
aa(lp197
g2
ag6
ag34
ag16
ag32
ag4
ag24
ag26
ag20
ag8
ag30
ag14
ag12
ag28
ag18
ag10
ag22
aa(lp198
g8
ag26
ag14
ag6
ag10
ag12
ag2
ag18
ag30
ag32
ag34
ag16
ag4
ag24
ag22
ag28
ag20
aa(lp199
g16
ag10
ag30
ag22
ag34
ag6
ag32
ag12
ag20
ag28
ag18
ag2
ag4
ag24
ag8
ag26
ag14
aa(lp200
g24
ag8
ag32
ag14
ag10
ag12
ag18
ag30
ag16
ag4
ag26
ag22
ag6
ag34
ag2
ag28
ag20
aa(lp201
g14
ag16
ag18
ag10
ag24
ag28
ag8
ag22
ag2
ag20
ag26
ag32
ag34
ag4
ag30
ag6
ag12
aa(lp202
g24
ag34
ag22
ag2
ag18
ag8
ag16
ag12
ag4
ag30
ag32
ag20
ag14
ag28
ag10
ag6
ag26
aa(lp203
g26
ag18
ag10
ag6
ag24
ag28
ag30
ag14
ag12
ag16
ag22
ag8
ag2
ag34
ag32
ag4
ag20
aa(lp204
g34
ag20
ag22
ag2
ag6
ag8
ag12
ag4
ag18
ag32
ag30
ag28
ag10
ag24
ag16
ag14
ag26
aa(lp205
g32
ag2
ag4
ag24
ag12
ag26
ag20
ag18
ag16
ag22
ag6
ag8
ag14
ag28
ag10
ag34
ag30
aa(lp206
g12
ag26
ag22
ag2
ag28
ag6
ag24
ag16
ag20
ag18
ag4
ag32
ag10
ag30
ag34
ag14
ag8
aa(lp207
g32
ag26
ag14
ag22
ag18
ag2
ag10
ag16
ag4
ag12
ag24
ag8
ag30
ag20
ag6
ag28
ag34
aa(lp208
g20
ag24
ag12
ag30
ag16
ag6
ag32
ag28
ag34
ag18
ag4
ag22
ag10
ag26
ag2
ag8
ag14
aa(lp209
g12
ag18
ag34
ag20
ag14
ag8
ag24
ag10
ag32
ag28
ag30
ag4
ag2
ag22
ag16
ag6
ag26
aa(lp210
g10
ag20
ag12
ag6
ag14
ag34
ag24
ag30
ag16
ag18
ag32
ag26
ag22
ag4
ag28
ag2
ag8
aa(lp211
g2
ag8
ag32
ag26
ag18
ag24
ag30
ag12
ag28
ag6
ag16
ag20
ag34
ag10
ag22
ag4
ag14
aa(lp212
g22
ag28
ag10
ag18
ag12
ag4
ag8
ag34
ag24
ag32
ag26
ag30
ag14
ag6
ag16
ag2
ag20
aa(lp213
g6
ag12
ag28
ag2
ag8
ag20
ag10
ag16
ag32
ag34
ag4
ag24
ag22
ag30
ag14
ag18
ag26
aa(lp214
g10
ag4
ag16
ag30
ag8
ag14
ag32
ag28
ag22
ag6
ag20
ag18
ag24
ag12
ag34
ag26
ag2
aa(lp215
g8
ag2
ag14
ag6
ag26
ag30
ag24
ag12
ag4
ag28
ag22
ag10
ag20
ag16
ag32
ag18
ag34
aa(lp216
g22
ag24
ag26
ag18
ag10
ag6
ag4
ag12
ag16
ag8
ag32
ag14
ag28
ag34
ag30
ag2
ag20
aa(lp217
g22
ag12
ag30
ag2
ag26
ag34
ag10
ag28
ag16
ag8
ag6
ag20
ag18
ag32
ag24
ag4
ag14
aa(lp218
g18
ag34
ag30
ag8
ag28
ag20
ag26
ag22
ag32
ag14
ag4
ag2
ag10
ag12
ag24
ag16
ag6
aa(lp219
g8
ag30
ag4
ag22
ag18
ag6
ag12
ag28
ag24
ag14
ag34
ag10
ag32
ag20
ag16
ag2
ag26
aa(lp220
g34
ag32
ag26
ag24
ag28
ag4
ag8
ag10
ag14
ag20
ag12
ag22
ag2
ag16
ag30
ag18
ag6
aa(lp221
g12
ag10
ag26
ag24
ag20
ag30
ag18
ag16
ag32
ag22
ag14
ag8
ag2
ag34
ag4
ag6
ag28
aa(lp222
g32
ag18
ag2
ag4
ag34
ag28
ag10
ag6
ag20
ag12
ag30
ag8
ag14
ag26
ag22
ag16
ag24
aa(lp223
g14
ag6
ag34
ag24
ag4
ag2
ag22
ag16
ag8
ag28
ag10
ag18
ag12
ag20
ag26
ag30
ag32
aa(lp224
g24
ag26
ag8
ag34
ag28
ag32
ag4
ag12
ag16
ag22
ag2
ag30
ag18
ag10
ag20
ag6
ag14
aa(lp225
g16
ag18
ag2
ag14
ag30
ag28
ag20
ag24
ag32
ag10
ag22
ag4
ag12
ag26
ag34
ag6
ag8
aa(lp226
g22
ag18
ag6
ag8
ag16
ag20
ag26
ag34
ag28
ag4
ag12
ag24
ag10
ag32
ag14
ag2
ag30
aa(lp227
g32
ag18
ag26
ag14
ag4
ag20
ag6
ag12
ag28
ag22
ag2
ag8
ag24
ag34
ag16
ag10
ag30
aa(lp228
g30
ag16
ag2
ag32
ag20
ag6
ag26
ag22
ag34
ag14
ag28
ag12
ag24
ag8
ag18
ag10
ag4
aa(lp229
g28
ag20
ag6
ag24
ag10
ag34
ag18
ag12
ag2
ag16
ag8
ag26
ag14
ag22
ag32
ag30
ag4
aa(lp230
g30
ag6
ag2
ag34
ag12
ag26
ag28
ag18
ag4
ag24
ag16
ag22
ag14
ag8
ag32
ag10
ag20
aa(lp231
g10
ag26
ag2
ag8
ag12
ag24
ag14
ag34
ag30
ag20
ag22
ag4
ag32
ag6
ag16
ag28
ag18
aa(lp232
g32
ag22
ag18
ag10
ag20
ag26
ag34
ag30
ag28
ag12
ag14
ag8
ag4
ag2
ag16
ag6
ag24
aa(lp233
g6
ag30
ag10
ag16
ag18
ag22
ag12
ag26
ag28
ag34
ag24
ag8
ag20
ag14
ag2
ag4
ag32
aa(lp234
g18
ag12
ag16
ag26
ag8
ag2
ag20
ag22
ag14
ag4
ag34
ag24
ag10
ag30
ag6
ag28
ag32
aa(lp235
g8
ag24
ag6
ag26
ag20
ag12
ag14
ag28
ag34
ag4
ag32
ag30
ag16
ag22
ag10
ag2
ag18
aa(lp236
g2
ag20
ag4
ag22
ag6
ag8
ag16
ag24
ag32
ag10
ag30
ag18
ag28
ag14
ag34
ag12
ag26
aa(lp237
g30
ag32
ag22
ag26
ag10
ag6
ag4
ag28
ag16
ag8
ag20
ag34
ag14
ag12
ag24
ag2
ag18
aa(lp238
g30
ag18
ag24
ag2
ag34
ag32
ag6
ag28
ag22
ag20
ag8
ag10
ag26
ag16
ag4
ag14
ag12
aa(lp239
g2
ag34
ag26
ag22
ag4
ag16
ag28
ag8
ag30
ag32
ag14
ag10
ag6
ag24
ag18
ag12
ag20
aa(lp240
g30
ag6
ag14
ag32
ag2
ag10
ag34
ag12
ag22
ag28
ag20
ag24
ag18
ag4
ag26
ag8
ag16
aa(lp241
g14
ag34
ag10
ag20
ag18
ag32
ag24
ag16
ag30
ag6
ag26
ag2
ag8
ag4
ag22
ag28
ag12
aa(lp242
g22
ag12
ag30
ag28
ag8
ag20
ag14
ag34
ag6
ag24
ag16
ag32
ag26
ag4
ag18
ag10
ag2
aa(lp243
g24
ag10
ag12
ag32
ag30
ag18
ag16
ag8
ag4
ag26
ag22
ag14
ag28
ag2
ag20
ag34
ag6
aa(lp244
g22
ag20
ag18
ag32
ag12
ag6
ag4
ag8
ag16
ag28
ag2
ag10
ag26
ag34
ag14
ag24
ag30
aa(lp245
g2
ag20
ag4
ag8
ag18
ag12
ag32
ag22
ag30
ag14
ag16
ag6
ag34
ag10
ag26
ag24
ag28
aa(lp246
g20
ag8
ag28
ag16
ag24
ag4
ag12
ag18
ag26
ag6
ag10
ag14
ag22
ag2
ag30
ag32
ag34
aa(lp247
g10
ag30
ag22
ag8
ag18
ag24
ag6
ag16
ag20
ag34
ag26
ag14
ag32
ag12
ag4
ag2
ag28
aa(lp248
g20
ag22
ag2
ag16
ag4
ag28
ag30
ag10
ag32
ag14
ag34
ag12
ag18
ag24
ag6
ag8
ag26
aa(lp249
g24
ag32
ag2
ag12
ag10
ag8
ag28
ag16
ag4
ag34
ag14
ag6
ag18
ag22
ag20
ag30
ag26
aa(lp250
g16
ag26
ag12
ag2
ag24
ag6
ag20
ag34
ag4
ag10
ag14
ag8
ag30
ag22
ag18
ag32
ag28
aa(lp251
g16
ag10
ag28
ag30
ag8
ag32
ag24
ag4
ag6
ag20
ag12
ag34
ag18
ag26
ag2
ag14
ag22
aa(lp252
g8
ag10
ag34
ag12
ag20
ag24
ag16
ag26
ag30
ag6
ag32
ag14
ag2
ag22
ag4
ag18
ag28
aa(lp253
g34
ag14
ag6
ag18
ag24
ag26
ag2
ag20
ag10
ag32
ag28
ag16
ag12
ag22
ag4
ag8
ag30
aa(lp254
g24
ag10
ag28
ag12
ag22
ag8
ag26
ag16
ag20
ag30
ag18
ag34
ag6
ag32
ag4
ag14
ag2
aa(lp255
g6
ag4
ag18
ag20
ag34
ag12
ag14
ag26
ag2
ag10
ag16
ag30
ag32
ag24
ag22
ag8
ag28
aa(lp256
g18
ag28
ag4
ag16
ag14
ag6
ag22
ag10
ag26
ag2
ag32
ag30
ag34
ag20
ag8
ag24
ag12
aa(lp257
g26
ag10
ag2
ag6
ag30
ag34
ag14
ag18
ag16
ag28
ag20
ag4
ag32
ag22
ag24
ag8
ag12
aa(lp258
g14
ag6
ag18
ag22
ag2
ag16
ag34
ag28
ag30
ag20
ag12
ag32
ag24
ag4
ag10
ag26
ag8
aa(lp259
g14
ag22
ag12
ag28
ag20
ag6
ag10
ag2
ag8
ag34
ag24
ag30
ag18
ag26
ag32
ag16
ag4
aa(lp260
g28
ag14
ag10
ag4
ag24
ag16
ag8
ag26
ag22
ag6
ag32
ag20
ag34
ag12
ag2
ag30
ag18
aa(lp261
g4
ag22
ag24
ag12
ag26
ag18
ag34
ag20
ag2
ag10
ag8
ag16
ag28
ag6
ag14
ag30
ag32
aa(lp262
g34
ag2
ag14
ag12
ag10
ag6
ag26
ag18
ag20
ag30
ag16
ag28
ag22
ag8
ag4
ag24
ag32
aa(lp263
g28
ag10
ag16
ag6
ag4
ag18
ag14
ag20
ag24
ag12
ag26
ag8
ag32
ag22
ag34
ag30
ag2
aa(lp264
g6
ag16
ag12
ag14
ag32
ag8
ag18
ag2
ag34
ag30
ag20
ag10
ag22
ag28
ag4
ag24
ag26
aa(lp265
g28
ag14
ag4
ag32
ag12
ag6
ag30
ag26
ag16
ag20
ag18
ag2
ag22
ag24
ag8
ag34
ag10
aa(lp266
g6
ag32
ag30
ag12
ag8
ag16
ag34
ag4
ag22
ag28
ag26
ag10
ag18
ag20
ag24
ag2
ag14
aa(lp267
g18
ag14
ag10
ag24
ag8
ag28
ag20
ag6
ag16
ag32
ag22
ag4
ag34
ag12
ag2
ag26
ag30
aa(lp268
g24
ag34
ag2
ag28
ag10
ag20
ag8
ag32
ag18
ag4
ag22
ag30
ag12
ag14
ag26
ag16
ag6
aa(lp269
g8
ag18
ag28
ag24
ag20
ag14
ag30
ag26
ag32
ag10
ag2
ag12
ag16
ag6
ag4
ag22
ag34
aa(lp270
g12
ag14
ag20
ag22
ag28
ag16
ag30
ag18
ag8
ag10
ag2
ag26
ag4
ag24
ag6
ag32
ag34
aa(lp271
g28
ag16
ag8
ag30
ag2
ag32
ag14
ag22
ag26
ag4
ag18
ag10
ag12
ag24
ag20
ag6
ag34
aa(lp272
g20
ag24
ag8
ag34
ag4
ag32
ag12
ag10
ag26
ag28
ag18
ag6
ag30
ag2
ag22
ag16
ag14
aa(lp273
g8
ag4
ag16
ag12
ag32
ag22
ag10
ag6
ag30
ag24
ag26
ag20
ag14
ag28
ag2
ag18
ag34
aa(lp274
g8
ag18
ag4
ag10
ag20
ag6
ag30
ag24
ag14
ag28
ag16
ag12
ag22
ag32
ag2
ag34
ag26
aa(lp275
g28
ag34
ag26
ag6
ag8
ag10
ag4
ag16
ag20
ag12
ag22
ag18
ag14
ag30
ag2
ag24
ag32
aa(lp276
g2
ag16
ag24
ag26
ag32
ag18
ag30
ag8
ag22
ag6
ag4
ag14
ag34
ag20
ag28
ag12
ag10
aa(lp277
g30
ag10
ag4
ag22
ag26
ag14
ag28
ag16
ag2
ag8
ag18
ag34
ag20
ag6
ag32
ag12
ag24
aa(lp278
g34
ag2
ag16
ag18
ag24
ag14
ag20
ag22
ag10
ag28
ag32
ag12
ag26
ag30
ag4
ag8
ag6
aa(lp279
g4
ag20
ag16
ag32
ag12
ag24
ag14
ag18
ag30
ag8
ag34
ag10
ag6
ag2
ag28
ag22
ag26
aa(lp280
g14
ag28
ag34
ag16
ag32
ag18
ag22
ag10
ag26
ag30
ag2
ag8
ag20
ag12
ag24
ag4
ag6
aa(lp281
g30
ag6
ag22
ag18
ag26
ag24
ag2
ag4
ag32
ag14
ag34
ag16
ag12
ag28
ag20
ag8
ag10
aa(lp282
g20
ag22
ag16
ag8
ag34
ag2
ag28
ag24
ag18
ag12
ag14
ag6
ag32
ag4
ag30
ag26
ag10
aa(lp283
g12
ag26
ag18
ag28
ag34
ag24
ag32
ag6
ag14
ag16
ag30
ag2
ag8
ag20
ag4
ag10
ag22
aa(lp284
g30
ag34
ag8
ag28
ag16
ag32
ag2
ag20
ag12
ag26
ag10
ag18
ag4
ag6
ag22
ag14
ag24
aa(lp285
g16
ag8
ag12
ag34
ag28
ag6
ag4
ag32
ag26
ag14
ag22
ag10
ag30
ag2
ag18
ag20
ag24
aa(lp286
g4
ag20
ag28
ag6
ag34
ag2
ag22
ag32
ag16
ag18
ag14
ag8
ag12
ag30
ag24
ag26
ag10
aa(lp287
g24
ag30
ag2
ag10
ag16
ag28
ag6
ag18
ag20
ag32
ag22
ag34
ag14
ag8
ag4
ag12
ag26
aa(lp288
g2
ag26
ag16
ag22
ag14
ag32
ag34
ag6
ag10
ag4
ag28
ag24
ag30
ag18
ag12
ag20
ag8
aa(lp289
g20
ag30
ag4
ag2
ag8
ag10
ag32
ag12
ag22
ag34
ag14
ag16
ag24
ag18
ag6
ag26
ag28
aa(lp290
g30
ag12
ag34
ag4
ag8
ag10
ag16
ag14
ag2
ag22
ag18
ag20
ag24
ag32
ag26
ag28
ag6
aa(lp291
g12
ag8
ag16
ag34
ag26
ag18
ag28
ag2
ag24
ag30
ag4
ag10
ag32
ag6
ag14
ag22
ag20
aa(lp292
g34
ag14
ag22
ag12
ag30
ag10
ag16
ag32
ag2
ag26
ag4
ag6
ag28
ag20
ag24
ag18
ag8
aa(lp293
g2
ag24
ag22
ag20
ag6
ag26
ag28
ag14
ag8
ag30
ag12
ag32
ag18
ag34
ag16
ag4
ag10
aa(lp294
g8
ag10
ag28
ag30
ag20
ag26
ag16
ag34
ag14
ag12
ag22
ag24
ag18
ag4
ag2
ag6
ag32
aa(lp295
g26
ag22
ag28
ag4
ag8
ag34
ag18
ag24
ag20
ag32
ag16
ag30
ag6
ag10
ag12
ag2
ag14
aa(lp296
g4
ag8
ag30
ag34
ag16
ag18
ag2
ag6
ag28
ag26
ag20
ag32
ag10
ag22
ag12
ag24
ag14
aa(lp297
g6
ag8
ag22
ag10
ag34
ag28
ag2
ag4
ag16
ag20
ag30
ag32
ag12
ag14
ag26
ag24
ag18
aa(lp298
g12
ag2
ag34
ag22
ag20
ag28
ag10
ag16
ag18
ag6
ag4
ag30
ag14
ag32
ag8
ag26
ag24
aa(lp299
g8
ag32
ag18
ag26
ag16
ag24
ag4
ag20
ag10
ag34
ag2
ag12
ag28
ag22
ag14
ag30
ag6
aa(lp300
g6
ag26
ag8
ag28
ag12
ag24
ag18
ag22
ag10
ag32
ag20
ag30
ag34
ag2
ag4
ag14
ag16
aa(lp301
g12
ag4
ag32
ag16
ag10
ag20
ag24
ag28
ag30
ag34
ag2
ag18
ag22
ag26
ag6
ag14
ag8
aa(lp302
g32
ag16
ag28
ag30
ag4
ag26
ag10
ag14
ag24
ag34
ag20
ag8
ag6
ag12
ag22
ag2
ag18
aa(lp303
g30
ag32
ag16
ag20
ag34
ag28
ag10
ag26
ag4
ag12
ag14
ag24
ag2
ag18
ag22
ag8
ag6
aa(lp304
g20
ag24
ag12
ag2
ag4
ag10
ag32
ag8
ag16
ag22
ag6
ag26
ag34
ag30
ag14
ag18
ag28
aa(lp305
g4
ag2
ag28
ag32
ag12
ag20
ag6
ag22
ag24
ag18
ag10
ag8
ag30
ag34
ag16
ag14
ag26
aa(lp306
g6
ag30
ag34
ag8
ag14
ag12
ag20
ag22
ag16
ag18
ag10
ag28
ag2
ag24
ag32
ag26
ag4
aa(lp307
g18
ag30
ag22
ag4
ag34
ag28
ag2
ag14
ag32
ag26
ag16
ag6
ag20
ag24
ag12
ag10
ag8
aa(lp308
g34
ag18
ag16
ag8
ag30
ag12
ag24
ag28
ag6
ag2
ag14
ag22
ag26
ag20
ag10
ag32
ag4
aa(lp309
g16
ag8
ag28
ag18
ag22
ag24
ag2
ag20
ag30
ag34
ag14
ag4
ag26
ag32
ag10
ag12
ag6
aa(lp310
g16
ag4
ag30
ag12
ag34
ag22
ag28
ag14
ag18
ag8
ag2
ag32
ag6
ag26
ag20
ag24
ag10
aa(lp311
g26
ag12
ag22
ag32
ag24
ag14
ag6
ag16
ag28
ag34
ag30
ag8
ag18
ag4
ag2
ag10
ag20
aa(lp312
g14
ag22
ag16
ag12
ag24
ag32
ag26
ag18
ag28
ag6
ag4
ag8
ag34
ag20
ag10
ag2
ag30
aa(lp313
g24
ag34
ag22
ag6
ag10
ag30
ag8
ag32
ag2
ag16
ag20
ag28
ag4
ag14
ag18
ag26
ag12
aa(lp314
g6
ag2
ag8
ag28
ag4
ag16
ag30
ag34
ag14
ag22
ag12
ag18
ag20
ag32
ag24
ag26
ag10
aa(lp315
g28
ag10
ag4
ag12
ag2
ag30
ag20
ag16
ag26
ag6
ag14
ag18
ag32
ag34
ag24
ag22
ag8
aa(lp316
g8
ag4
ag20
ag6
ag32
ag30
ag14
ag22
ag34
ag18
ag24
ag16
ag12
ag2
ag28
ag10
ag26
aa(lp317
g6
ag24
ag20
ag10
ag8
ag14
ag12
ag28
ag32
ag22
ag34
ag16
ag4
ag2
ag30
ag26
ag18
aa(lp318
g2
ag14
ag18
ag6
ag26
ag20
ag22
ag8
ag28
ag30
ag32
ag4
ag10
ag16
ag34
ag24
ag12
aa(lp319
g6
ag14
ag16
ag22
ag18
ag10
ag28
ag2
ag24
ag20
ag8
ag26
ag32
ag34
ag12
ag30
ag4
aa(lp320
g34
ag32
ag26
ag2
ag8
ag4
ag16
ag14
ag20
ag22
ag30
ag10
ag18
ag6
ag24
ag28
ag12
aa(lp321
g16
ag4
ag34
ag28
ag14
ag8
ag12
ag18
ag2
ag24
ag32
ag26
ag22
ag30
ag10
ag6
ag20
aa(lp322
g30
ag28
ag34
ag14
ag12
ag16
ag8
ag10
ag18
ag20
ag22
ag26
ag2
ag4
ag24
ag6
ag32
aa(lp323
g30
ag4
ag6
ag2
ag20
ag10
ag22
ag24
ag18
ag26
ag8
ag32
ag14
ag28
ag12
ag16
ag34
aa(lp324
g12
ag24
ag2
ag32
ag14
ag28
ag22
ag26
ag4
ag10
ag30
ag6
ag20
ag34
ag8
ag18
ag16
aa(lp325
g14
ag8
ag16
ag4
ag12
ag10
ag22
ag2
ag32
ag18
ag24
ag28
ag34
ag30
ag20
ag26
ag6
aa(lp326
g2
ag10
ag4
ag12
ag14
ag8
ag26
ag32
ag16
ag30
ag34
ag24
ag20
ag18
ag28
ag22
ag6
aa(lp327
g6
ag32
ag2
ag12
ag20
ag16
ag18
ag22
ag26
ag4
ag30
ag24
ag8
ag14
ag28
ag10
ag34
aa(lp328
g34
ag30
ag20
ag32
ag8
ag6
ag26
ag24
ag18
ag12
ag28
ag14
ag4
ag2
ag10
ag22
ag16
aa(lp329
g4
ag34
ag18
ag28
ag22
ag14
ag2
ag8
ag6
ag30
ag10
ag32
ag24
ag26
ag12
ag16
ag20
aa(lp330
g16
ag28
ag2
ag26
ag12
ag22
ag18
ag6
ag20
ag30
ag4
ag24
ag14
ag34
ag10
ag32
ag8
aa(lp331
g30
ag16
ag22
ag10
ag4
ag6
ag18
ag20
ag14
ag24
ag32
ag12
ag26
ag28
ag2
ag8
ag34
aa(lp332
g12
ag32
ag4
ag30
ag26
ag16
ag14
ag6
ag2
ag8
ag22
ag10
ag28
ag24
ag20
ag18
ag34
aa(lp333
g20
ag6
ag32
ag26
ag4
ag18
ag2
ag28
ag30
ag16
ag12
ag10
ag14
ag34
ag24
ag8
ag22
aa(lp334
g18
ag6
ag26
ag28
ag32
ag12
ag24
ag22
ag16
ag10
ag4
ag34
ag14
ag20
ag30
ag2
ag8
aa(lp335
g20
ag24
ag14
ag16
ag2
ag30
ag32
ag12
ag8
ag18
ag26
ag28
ag10
ag22
ag4
ag6
ag34
aa(lp336
g32
ag28
ag34
ag12
ag2
ag22
ag4
ag18
ag24
ag16
ag30
ag6
ag20
ag14
ag8
ag10
ag26
aa(lp337
g8
ag28
ag34
ag16
ag22
ag14
ag18
ag2
ag4
ag10
ag30
ag26
ag12
ag32
ag6
ag20
ag24
aa(lp338
g10
ag22
ag14
ag16
ag32
ag34
ag12
ag2
ag20
ag6
ag18
ag24
ag4
ag8
ag30
ag26
ag28
aa(lp339
g14
ag24
ag12
ag20
ag22
ag28
ag32
ag10
ag34
ag18
ag6
ag8
ag26
ag4
ag30
ag16
ag2
aa(lp340
g26
ag34
ag16
ag20
ag12
ag6
ag14
ag4
ag18
ag24
ag28
ag8
ag2
ag30
ag32
ag22
ag10
aa(lp341
g32
ag2
ag12
ag10
ag28
ag4
ag14
ag22
ag20
ag26
ag18
ag24
ag34
ag16
ag8
ag30
ag6
aa(lp342
g30
ag24
ag32
ag14
ag12
ag28
ag2
ag16
ag6
ag18
ag20
ag8
ag22
ag10
ag34
ag26
ag4
aa(lp343
g16
ag8
ag32
ag24
ag4
ag14
ag30
ag10
ag12
ag28
ag34
ag6
ag22
ag20
ag26
ag2
ag18
aa(lp344
g18
ag2
ag6
ag22
ag14
ag12
ag24
ag4
ag32
ag26
ag30
ag16
ag10
ag20
ag34
ag28
ag8
aa(lp345
g10
ag26
ag14
ag12
ag32
ag6
ag24
ag8
ag4
ag30
ag16
ag18
ag34
ag28
ag2
ag20
ag22
aa(lp346
g26
ag10
ag6
ag14
ag20
ag2
ag4
ag12
ag30
ag8
ag24
ag32
ag28
ag34
ag22
ag18
ag16
aa(lp347
g30
ag34
ag16
ag6
ag26
ag10
ag14
ag2
ag18
ag8
ag32
ag20
ag12
ag24
ag28
ag22
ag4
aa(lp348
g12
ag30
ag2
ag14
ag6
ag16
ag10
ag22
ag26
ag18
ag34
ag32
ag24
ag8
ag28
ag4
ag20
aa(lp349
g8
ag28
ag10
ag32
ag34
ag20
ag18
ag16
ag22
ag26
ag4
ag2
ag24
ag12
ag14
ag30
ag6
aa(lp350
g6
ag32
ag12
ag14
ag10
ag2
ag22
ag18
ag20
ag4
ag24
ag34
ag8
ag26
ag28
ag16
ag30
aa(lp351
g16
ag32
ag8
ag24
ag20
ag28
ag6
ag26
ag12
ag30
ag14
ag4
ag34
ag2
ag10
ag22
ag18
aa(lp352
g28
ag10
ag8
ag32
ag18
ag30
ag4
ag24
ag14
ag20
ag12
ag16
ag6
ag34
ag22
ag26
ag2
aa(lp353
g6
ag18
ag28
ag34
ag2
ag22
ag24
ag14
ag8
ag30
ag32
ag20
ag26
ag10
ag12
ag16
ag4
aa(lp354
g8
ag28
ag6
ag34
ag20
ag12
ag30
ag26
ag16
ag4
ag10
ag18
ag22
ag24
ag14
ag32
ag2
aa(lp355
g22
ag18
ag34
ag2
ag26
ag14
ag30
ag16
ag6
ag32
ag12
ag8
ag24
ag4
ag10
ag20
ag28
aa(lp356
g2
ag34
ag14
ag10
ag12
ag16
ag8
ag22
ag32
ag24
ag18
ag4
ag20
ag6
ag26
ag28
ag30
aa(lp357
g34
ag12
ag2
ag20
ag24
ag6
ag16
ag22
ag26
ag14
ag4
ag8
ag28
ag32
ag18
ag10
ag30
aa(lp358
g2
ag12
ag32
ag26
ag34
ag20
ag16
ag4
ag28
ag6
ag8
ag18
ag30
ag10
ag14
ag22
ag24
aa(lp359
g10
ag14
ag30
ag8
ag6
ag34
ag28
ag4
ag24
ag20
ag2
ag16
ag22
ag32
ag12
ag18
ag26
aa(lp360
g26
ag2
ag4
ag18
ag32
ag6
ag34
ag14
ag30
ag24
ag28
ag16
ag12
ag22
ag10
ag8
ag20
aa(lp361
g28
ag16
ag4
ag12
ag18
ag6
ag20
ag14
ag34
ag8
ag26
ag30
ag22
ag32
ag2
ag24
ag10
aa(lp362
g2
ag12
ag28
ag30
ag10
ag26
ag6
ag8
ag18
ag20
ag24
ag22
ag14
ag32
ag16
ag4
ag34
aa(lp363
g14
ag34
ag6
ag10
ag28
ag12
ag24
ag18
ag32
ag2
ag22
ag8
ag16
ag20
ag26
ag4
ag30
aa(lp364
g10
ag30
ag8
ag18
ag28
ag26
ag6
ag2
ag34
ag22
ag4
ag14
ag20
ag16
ag12
ag24
ag32
aa(lp365
g24
ag26
ag14
ag20
ag12
ag30
ag10
ag32
ag4
ag2
ag16
ag28
ag6
ag22
ag18
ag8
ag34
aa(lp366
g12
ag26
ag14
ag20
ag24
ag34
ag8
ag6
ag32
ag10
ag18
ag2
ag4
ag30
ag16
ag22
ag28
aa(lp367
g26
ag8
ag32
ag4
ag30
ag28
ag14
ag20
ag18
ag34
ag6
ag16
ag10
ag12
ag2
ag22
ag24
aa(lp368
g8
ag18
ag30
ag4
ag12
ag32
ag28
ag26
ag22
ag24
ag34
ag2
ag10
ag16
ag14
ag20
ag6
aa(lp369
g18
ag32
ag12
ag8
ag2
ag14
ag26
ag34
ag10
ag6
ag4
ag16
ag24
ag20
ag28
ag22
ag30
aa(lp370
g16
ag10
ag26
ag28
ag12
ag22
ag2
ag4
ag18
ag6
ag14
ag24
ag32
ag30
ag20
ag8
ag34
aa(lp371
g20
ag2
ag12
ag34
ag18
ag22
ag8
ag6
ag26
ag32
ag16
ag28
ag30
ag24
ag14
ag4
ag10
aa(lp372
g24
ag8
ag4
ag18
ag16
ag30
ag12
ag2
ag6
ag34
ag32
ag26
ag20
ag28
ag10
ag22
ag14
aa(lp373
g2
ag12
ag34
ag16
ag10
ag8
ag18
ag26
ag28
ag22
ag6
ag4
ag20
ag30
ag14
ag24
ag32
aa(lp374
g6
ag16
ag2
ag26
ag10
ag24
ag28
ag34
ag32
ag20
ag14
ag4
ag18
ag30
ag22
ag12
ag8
aa(lp375
g12
ag24
ag32
ag8
ag14
ag30
ag22
ag26
ag18
ag2
ag34
ag4
ag16
ag20
ag28
ag10
ag6
aa(lp376
g14
ag2
ag26
ag30
ag18
ag10
ag28
ag6
ag32
ag16
ag8
ag24
ag12
ag34
ag4
ag22
ag20
aa(lp377
g4
ag26
ag12
ag18
ag30
ag2
ag16
ag24
ag32
ag20
ag22
ag8
ag34
ag14
ag28
ag6
ag10
aa(lp378
g16
ag32
ag26
ag24
ag30
ag10
ag28
ag2
ag34
ag8
ag12
ag20
ag22
ag4
ag6
ag18
ag14
aa(lp379
g14
ag16
ag24
ag26
ag4
ag32
ag6
ag8
ag2
ag28
ag12
ag18
ag22
ag30
ag20
ag34
ag10
aa(lp380
g14
ag28
ag26
ag16
ag30
ag24
ag22
ag6
ag2
ag4
ag20
ag10
ag18
ag32
ag34
ag8
ag12
aa(lp381
g12
ag30
ag8
ag16
ag32
ag24
ag6
ag18
ag22
ag4
ag2
ag14
ag26
ag10
ag20
ag28
ag34
aa(lp382
g24
ag6
ag4
ag10
ag26
ag34
ag28
ag20
ag30
ag2
ag8
ag12
ag32
ag14
ag16
ag22
ag18
aa(lp383
g18
ag10
ag12
ag8
ag2
ag26
ag32
ag6
ag14
ag24
ag20
ag16
ag22
ag28
ag30
ag34
ag4
aa(lp384
g16
ag12
ag22
ag32
ag18
ag8
ag10
ag34
ag6
ag20
ag2
ag24
ag26
ag28
ag14
ag30
ag4
aa(lp385
g28
ag8
ag24
ag2
ag14
ag6
ag32
ag18
ag10
ag20
ag22
ag4
ag26
ag12
ag30
ag34
ag16
aa(lp386
g24
ag8
ag14
ag12
ag18
ag32
ag4
ag2
ag28
ag6
ag20
ag26
ag16
ag34
ag10
ag30
ag22
aa(lp387
g34
ag14
ag16
ag10
ag18
ag12
ag30
ag26
ag2
ag20
ag8
ag6
ag24
ag22
ag32
ag4
ag28
aa(lp388
g20
ag18
ag24
ag16
ag14
ag10
ag4
ag8
ag6
ag22
ag34
ag28
ag26
ag2
ag30
ag32
ag12
aa(lp389
g32
ag30
ag28
ag26
ag6
ag22
ag12
ag16
ag24
ag14
ag8
ag4
ag20
ag2
ag10
ag34
ag18
aa(lp390
g14
ag4
ag22
ag18
ag32
ag10
ag24
ag6
ag16
ag2
ag34
ag26
ag30
ag28
ag20
ag12
ag8
aa(lp391
g2
ag32
ag20
ag26
ag22
ag16
ag8
ag12
ag14
ag28
ag30
ag24
ag18
ag6
ag10
ag4
ag34
aa(lp392
g2
ag10
ag6
ag28
ag18
ag22
ag26
ag30
ag4
ag34
ag16
ag14
ag12
ag32
ag24
ag20
ag8
aa(lp393
g4
ag22
ag24
ag28
ag30
ag16
ag10
ag34
ag12
ag26
ag8
ag14
ag32
ag20
ag2
ag18
ag6
aa(lp394
g32
ag2
ag22
ag4
ag8
ag16
ag26
ag34
ag18
ag30
ag10
ag28
ag20
ag12
ag6
ag14
ag24
aa(lp395
g20
ag12
ag28
ag30
ag6
ag26
ag8
ag10
ag14
ag24
ag2
ag16
ag18
ag22
ag34
ag4
ag32
aa(lp396
g32
ag6
ag22
ag16
ag34
ag18
ag20
ag10
ag14
ag30
ag24
ag8
ag4
ag2
ag26
ag28
ag12
aa(lp397
g14
ag22
ag16
ag6
ag8
ag18
ag32
ag4
ag26
ag30
ag10
ag34
ag24
ag20
ag12
ag28
ag2
aa(lp398
g8
ag2
ag6
ag22
ag20
ag28
ag30
ag32
ag18
ag26
ag10
ag4
ag16
ag14
ag24
ag12
ag34
aa(lp399
g30
ag20
ag8
ag22
ag6
ag2
ag24
ag16
ag26
ag12
ag34
ag4
ag18
ag14
ag28
ag10
ag32
aa(lp400
g30
ag26
ag4
ag18
ag12
ag22
ag32
ag24
ag14
ag10
ag16
ag20
ag34
ag6
ag28
ag2
ag8
aa(lp401
g4
ag28
ag24
ag30
ag2
ag32
ag26
ag16
ag12
ag6
ag10
ag18
ag20
ag22
ag34
ag8
ag14
aa(lp402
g6
ag14
ag16
ag8
ag28
ag26
ag18
ag20
ag30
ag4
ag2
ag32
ag24
ag34
ag22
ag12
ag10
aa(lp403
g20
ag6
ag18
ag4
ag32
ag8
ag26
ag12
ag28
ag22
ag16
ag34
ag24
ag2
ag14
ag30
ag10
aa(lp404
g32
ag2
ag6
ag10
ag34
ag26
ag4
ag20
ag12
ag28
ag14
ag24
ag16
ag18
ag22
ag8
ag30
aa(lp405
g8
ag6
ag20
ag28
ag18
ag30
ag14
ag22
ag34
ag26
ag12
ag4
ag2
ag10
ag16
ag32
ag24
aa(lp406
g14
ag28
ag30
ag18
ag20
ag32
ag6
ag16
ag8
ag34
ag22
ag24
ag4
ag12
ag10
ag2
ag26
aa(lp407
g32
ag30
ag18
ag26
ag8
ag28
ag4
ag24
ag10
ag22
ag14
ag16
ag2
ag6
ag20
ag34
ag12
aa(lp408
g16
ag34
ag14
ag8
ag12
ag2
ag26
ag24
ag28
ag22
ag20
ag10
ag32
ag6
ag4
ag18
ag30
aa(lp409
g32
ag30
ag14
ag2
ag6
ag12
ag22
ag10
ag24
ag34
ag18
ag28
ag8
ag20
ag26
ag16
ag4
aa(lp410
g16
ag10
ag30
ag14
ag8
ag24
ag34
ag18
ag12
ag28
ag6
ag20
ag32
ag4
ag26
ag22
ag2
aa(lp411
g32
ag6
ag20
ag8
ag18
ag14
ag24
ag30
ag16
ag2
ag10
ag22
ag26
ag4
ag34
ag28
ag12
aa(lp412
g12
ag18
ag4
ag16
ag6
ag14
ag22
ag10
ag30
ag28
ag34
ag32
ag2
ag26
ag20
ag24
ag8
aa(lp413
g14
ag18
ag28
ag12
ag2
ag26
ag20
ag34
ag10
ag30
ag6
ag24
ag4
ag32
ag16
ag8
ag22
aa(lp414
g10
ag16
ag28
ag24
ag32
ag2
ag34
ag30
ag18
ag26
ag22
ag8
ag12
ag6
ag20
ag4
ag14
aa(lp415
g24
ag28
ag12
ag14
ag4
ag6
ag8
ag18
ag34
ag16
ag10
ag2
ag30
ag22
ag26
ag20
ag32
aa(lp416
g20
ag8
ag22
ag16
ag4
ag2
ag14
ag18
ag6
ag28
ag10
ag26
ag32
ag24
ag12
ag34
ag30
aa(lp417
g26
ag10
ag32
ag12
ag2
ag4
ag20
ag6
ag28
ag30
ag14
ag8
ag22
ag34
ag24
ag16
ag18
aa(lp418
g20
ag16
ag22
ag6
ag12
ag34
ag18
ag14
ag26
ag4
ag8
ag24
ag28
ag32
ag2
ag30
ag10
aa(lp419
g26
ag34
ag8
ag6
ag16
ag10
ag28
ag14
ag20
ag32
ag22
ag24
ag2
ag30
ag18
ag12
ag4
aa(lp420
g16
ag20
ag22
ag34
ag24
ag8
ag30
ag12
ag2
ag32
ag4
ag28
ag18
ag14
ag26
ag6
ag10
aa(lp421
g32
ag20
ag10
ag18
ag30
ag2
ag16
ag24
ag8
ag4
ag6
ag12
ag26
ag28
ag34
ag22
ag14
aa(lp422
g18
ag34
ag14
ag4
ag24
ag30
ag12
ag32
ag8
ag10
ag6
ag2
ag28
ag22
ag26
ag16
ag20
aa(lp423
g14
ag22
ag18
ag34
ag28
ag26
ag10
ag4
ag6
ag20
ag24
ag8
ag2
ag16
ag30
ag12
ag32
aa(lp424
g32
ag6
ag8
ag20
ag26
ag18
ag14
ag30
ag24
ag4
ag34
ag10
ag22
ag16
ag12
ag2
ag28
aa(lp425
g16
ag22
ag34
ag20
ag8
ag28
ag6
ag32
ag12
ag26
ag2
ag24
ag18
ag10
ag14
ag4
ag30
aa(lp426
g28
ag10
ag30
ag4
ag26
ag8
ag16
ag34
ag32
ag20
ag24
ag14
ag2
ag22
ag12
ag18
ag6
aa(lp427
g34
ag14
ag4
ag2
ag26
ag10
ag6
ag30
ag20
ag18
ag32
ag8
ag24
ag12
ag28
ag22
ag16
aa(lp428
g6
ag32
ag20
ag26
ag18
ag8
ag2
ag30
ag22
ag10
ag28
ag24
ag12
ag14
ag16
ag4
ag34
aa(lp429
g28
ag24
ag20
ag8
ag22
ag18
ag30
ag14
ag6
ag32
ag26
ag34
ag2
ag10
ag12
ag4
ag16
aa(lp430
g16
ag4
ag30
ag22
ag18
ag28
ag12
ag24
ag20
ag8
ag26
ag14
ag32
ag6
ag2
ag34
ag10
aa(lp431
g10
ag30
ag24
ag32
ag14
ag26
ag18
ag12
ag4
ag16
ag6
ag28
ag8
ag22
ag20
ag2
ag34
aa(lp432
g4
ag10
ag12
ag34
ag22
ag30
ag18
ag6
ag32
ag8
ag16
ag24
ag20
ag26
ag14
ag28
ag2
aa(lp433
g32
ag6
ag10
ag26
ag18
ag20
ag8
ag16
ag30
ag22
ag24
ag2
ag14
ag4
ag28
ag12
ag34
aa(lp434
g28
ag14
ag16
ag2
ag10
ag24
ag18
ag6
ag20
ag34
ag30
ag8
ag22
ag26
ag12
ag32
ag4
aa(lp435
g20
ag10
ag22
ag32
ag14
ag8
ag6
ag4
ag28
ag24
ag12
ag30
ag16
ag34
ag2
ag26
ag18
aa(lp436
g32
ag6
ag16
ag18
ag10
ag24
ag26
ag2
ag12
ag20
ag28
ag14
ag8
ag34
ag22
ag30
ag4
aa(lp437
g6
ag20
ag16
ag4
ag8
ag28
ag26
ag22
ag2
ag18
ag32
ag30
ag34
ag10
ag24
ag14
ag12
aa(lp438
g26
ag12
ag34
ag14
ag22
ag16
ag28
ag2
ag24
ag32
ag6
ag30
ag18
ag10
ag4
ag8
ag20
aa(lp439
g16
ag32
ag26
ag20
ag14
ag34
ag12
ag4
ag28
ag8
ag24
ag18
ag22
ag6
ag30
ag10
ag2
aa(lp440
g30
ag22
ag18
ag6
ag4
ag34
ag16
ag12
ag14
ag20
ag10
ag28
ag32
ag8
ag2
ag24
ag26
aa(lp441
g10
ag26
ag16
ag18
ag34
ag22
ag24
ag6
ag28
ag32
ag2
ag30
ag4
ag14
ag20
ag12
ag8
aa(lp442
g2
ag18
ag6
ag4
ag8
ag28
ag26
ag30
ag16
ag22
ag10
ag12
ag34
ag14
ag20
ag32
ag24
aa(lp443
g18
ag26
ag6
ag28
ag4
ag24
ag10
ag34
ag14
ag12
ag30
ag22
ag16
ag8
ag2
ag20
ag32
aa(lp444
g24
ag6
ag8
ag14
ag10
ag4
ag28
ag22
ag32
ag12
ag34
ag2
ag26
ag18
ag30
ag20
ag16
aa(lp445
g4
ag2
ag16
ag12
ag30
ag14
ag28
ag6
ag32
ag20
ag24
ag34
ag18
ag22
ag8
ag10
ag26
aa(lp446
g6
ag4
ag14
ag28
ag12
ag20
ag32
ag8
ag30
ag18
ag22
ag2
ag26
ag10
ag34
ag24
ag16
aa(lp447
g18
ag28
ag34
ag24
ag32
ag22
ag30
ag2
ag20
ag16
ag8
ag6
ag4
ag26
ag14
ag12
ag10
aa(lp448
g20
ag22
ag26
ag12
ag8
ag14
ag16
ag32
ag24
ag30
ag28
ag34
ag4
ag2
ag10
ag18
ag6
aa(lp449
g20
ag26
ag10
ag32
ag30
ag12
ag18
ag8
ag2
ag24
ag6
ag34
ag22
ag16
ag14
ag4
ag28
aa(lp450
g26
ag6
ag22
ag4
ag8
ag30
ag2
ag34
ag10
ag20
ag16
ag12
ag18
ag14
ag24
ag28
ag32
aa(lp451
g10
ag26
ag32
ag6
ag8
ag12
ag16
ag18
ag2
ag20
ag4
ag34
ag24
ag28
ag14
ag22
ag30
aa(lp452
g24
ag6
ag18
ag34
ag26
ag2
ag4
ag28
ag8
ag14
ag22
ag12
ag16
ag32
ag30
ag20
ag10
aa(lp453
g8
ag34
ag32
ag30
ag16
ag18
ag4
ag10
ag2
ag12
ag14
ag26
ag22
ag6
ag28
ag24
ag20
aa(lp454
g16
ag6
ag34
ag4
ag28
ag8
ag22
ag14
ag26
ag18
ag2
ag10
ag20
ag32
ag12
ag24
ag30
aa(lp455
g28
ag20
ag30
ag12
ag18
ag24
ag10
ag6
ag14
ag16
ag34
ag22
ag8
ag32
ag26
ag2
ag4
aa(lp456
g18
ag20
ag6
ag34
ag26
ag28
ag10
ag2
ag24
ag4
ag22
ag30
ag16
ag14
ag12
ag32
ag8
aa(lp457
g30
ag18
ag22
ag16
ag10
ag2
ag20
ag8
ag6
ag34
ag24
ag12
ag14
ag26
ag4
ag32
ag28
aa(lp458
g20
ag2
ag22
ag14
ag30
ag34
ag12
ag16
ag26
ag8
ag18
ag4
ag24
ag32
ag6
ag10
ag28
aa(lp459
g14
ag10
ag34
ag18
ag16
ag30
ag12
ag22
ag28
ag32
ag6
ag26
ag24
ag2
ag20
ag4
ag8
aa(lp460
g2
ag28
ag8
ag20
ag30
ag10
ag6
ag32
ag34
ag4
ag22
ag16
ag18
ag24
ag14
ag26
ag12
aa(lp461
g10
ag28
ag22
ag26
ag34
ag6
ag18
ag24
ag20
ag16
ag2
ag8
ag30
ag12
ag4
ag32
ag14
aa(lp462
g10
ag22
ag8
ag30
ag6
ag34
ag24
ag26
ag2
ag4
ag28
ag18
ag14
ag32
ag16
ag20
ag12
aa(lp463
g18
ag12
ag10
ag16
ag32
ag30
ag34
ag14
ag2
ag28
ag8
ag6
ag22
ag20
ag4
ag24
ag26
aa(lp464
g8
ag16
ag34
ag24
ag28
ag14
ag2
ag32
ag22
ag20
ag10
ag26
ag6
ag30
ag18
ag4
ag12
aa(lp465
g4
ag22
ag20
ag8
ag30
ag10
ag14
ag16
ag28
ag18
ag34
ag2
ag6
ag32
ag26
ag12
ag24
aa(lp466
g18
ag24
ag26
ag10
ag30
ag34
ag20
ag2
ag12
ag8
ag32
ag6
ag4
ag22
ag14
ag28
ag16
aa(lp467
g2
ag8
ag26
ag16
ag20
ag22
ag18
ag6
ag10
ag12
ag28
ag30
ag24
ag34
ag32
ag14
ag4
aa(lp468
g30
ag10
ag20
ag2
ag24
ag32
ag4
ag14
ag18
ag22
ag6
ag16
ag26
ag8
ag34
ag12
ag28
aa(lp469
g2
ag6
ag20
ag4
ag24
ag26
ag18
ag10
ag12
ag14
ag8
ag34
ag16
ag32
ag30
ag28
ag22
aa(lp470
g30
ag18
ag10
ag32
ag8
ag22
ag34
ag28
ag4
ag26
ag20
ag6
ag12
ag16
ag24
ag14
ag2
aa(lp471
g32
ag24
ag18
ag12
ag20
ag30
ag16
ag4
ag10
ag8
ag28
ag2
ag14
ag34
ag6
ag26
ag22
aa(lp472
g22
ag34
ag30
ag26
ag10
ag28
ag14
ag4
ag24
ag12
ag18
ag16
ag8
ag32
ag2
ag20
ag6
aa(lp473
g34
ag4
ag20
ag24
ag26
ag2
ag14
ag30
ag18
ag12
ag8
ag28
ag10
ag16
ag6
ag32
ag22
aa(lp474
g14
ag22
ag20
ag28
ag2
ag10
ag4
ag6
ag26
ag12
ag32
ag30
ag18
ag8
ag24
ag16
ag34
aa(lp475
g8
ag24
ag32
ag16
ag30
ag6
ag22
ag20
ag10
ag34
ag4
ag12
ag2
ag28
ag14
ag18
ag26
aa(lp476
g18
ag16
ag4
ag34
ag26
ag2
ag20
ag28
ag6
ag30
ag14
ag24
ag32
ag12
ag10
ag8
ag22
aa(lp477
g22
ag4
ag32
ag20
ag12
ag2
ag34
ag16
ag6
ag10
ag30
ag26
ag28
ag24
ag18
ag8
ag14
aa(lp478
g26
ag10
ag24
ag12
ag20
ag2
ag32
ag4
ag14
ag8
ag16
ag6
ag34
ag30
ag22
ag18
ag28
aa(lp479
g22
ag28
ag18
ag12
ag24
ag2
ag4
ag16
ag34
ag30
ag10
ag6
ag14
ag8
ag26
ag32
ag20
aa(lp480
g22
ag4
ag8
ag16
ag18
ag14
ag32
ag28
ag20
ag12
ag34
ag2
ag30
ag6
ag24
ag10
ag26
aa(lp481
g32
ag26
ag14
ag16
ag12
ag18
ag22
ag4
ag2
ag10
ag28
ag34
ag6
ag30
ag8
ag24
ag20
aa(lp482
g34
ag22
ag18
ag20
ag4
ag26
ag2
ag12
ag16
ag10
ag8
ag32
ag28
ag30
ag6
ag14
ag24
aa(lp483
g28
ag26
ag20
ag30
ag6
ag4
ag10
ag22
ag34
ag24
ag32
ag12
ag14
ag8
ag16
ag2
ag18
aa(lp484
g6
ag30
ag16
ag14
ag32
ag18
ag10
ag28
ag8
ag20
ag22
ag4
ag12
ag24
ag34
ag2
ag26
aa(lp485
g14
ag2
ag16
ag10
ag32
ag12
ag4
ag18
ag8
ag24
ag26
ag34
ag6
ag20
ag28
ag30
ag22
aa(lp486
g20
ag12
ag10
ag30
ag34
ag8
ag18
ag22
ag6
ag4
ag32
ag28
ag2
ag26
ag24
ag16
ag14
aa(lp487
g20
ag34
ag6
ag18
ag28
ag10
ag24
ag12
ag8
ag30
ag26
ag14
ag32
ag22
ag4
ag16
ag2
aa(lp488
g12
ag20
ag30
ag18
ag16
ag8
ag34
ag28
ag32
ag6
ag10
ag14
ag4
ag22
ag2
ag26
ag24
aa(lp489
g16
ag12
ag20
ag4
ag32
ag10
ag26
ag22
ag2
ag28
ag6
ag30
ag24
ag14
ag18
ag34
ag8
aa(lp490
g14
ag20
ag24
ag26
ag34
ag8
ag18
ag10
ag12
ag30
ag6
ag16
ag32
ag2
ag4
ag28
ag22
aa(lp491
g2
ag10
ag32
ag22
ag16
ag24
ag26
ag18
ag28
ag8
ag12
ag20
ag34
ag6
ag14
ag30
ag4
aa(lp492
g6
ag22
ag34
ag10
ag30
ag26
ag2
ag16
ag28
ag18
ag20
ag32
ag24
ag8
ag12
ag4
ag14
aa(lp493
g8
ag14
ag20
ag22
ag30
ag2
ag26
ag10
ag34
ag4
ag24
ag18
ag16
ag28
ag6
ag32
ag12
aa(lp494
g30
ag4
ag18
ag10
ag2
ag24
ag28
ag16
ag6
ag20
ag32
ag26
ag14
ag8
ag22
ag12
ag34
aa(lp495
g26
ag28
ag24
ag20
ag16
ag30
ag8
ag2
ag14
ag18
ag4
ag34
ag22
ag32
ag12
ag10
ag6
aa(lp496
g22
ag8
ag34
ag4
ag18
ag20
ag30
ag2
ag6
ag26
ag10
ag24
ag12
ag32
ag28
ag16
ag14
aa(lp497
g8
ag28
ag32
ag6
ag20
ag14
ag34
ag18
ag2
ag12
ag30
ag4
ag26
ag24
ag22
ag16
ag10
aa(lp498
g2
ag12
ag34
ag32
ag4
ag8
ag14
ag22
ag26
ag30
ag24
ag20
ag16
ag10
ag28
ag18
ag6
aa(lp499
g28
ag24
ag6
ag10
ag26
ag34
ag16
ag30
ag32
ag2
ag22
ag14
ag8
ag12
ag18
ag4
ag20
aa(lp500
g20
ag14
ag22
ag30
ag34
ag8
ag2
ag24
ag12
ag4
ag16
ag26
ag28
ag18
ag32
ag10
ag6
aa(lp501
g30
ag34
ag24
ag22
ag16
ag32
ag8
ag14
ag28
ag10
ag4
ag2
ag12
ag18
ag20
ag26
ag6
aa(lp502
g8
ag22
ag24
ag2
ag34
ag20
ag26
ag14
ag18
ag28
ag12
ag6
ag10
ag32
ag30
ag4
ag16
aa(lp503
g24
ag4
ag22
ag32
ag12
ag20
ag16
ag26
ag10
ag6
ag28
ag2
ag14
ag30
ag34
ag8
ag18
aa(lp504
g32
ag34
ag10
ag22
ag4
ag26
ag24
ag2
ag28
ag14
ag8
ag30
ag16
ag6
ag18
ag20
ag12
aa(lp505
g28
ag8
ag4
ag18
ag26
ag6
ag30
ag22
ag12
ag20
ag16
ag14
ag10
ag2
ag24
ag32
ag34
aa(lp506
g26
ag16
ag34
ag18
ag14
ag32
ag30
ag2
ag8
ag20
ag6
ag4
ag12
ag10
ag28
ag22
ag24
aa(lp507
g6
ag18
ag26
ag14
ag16
ag24
ag30
ag8
ag12
ag28
ag10
ag32
ag20
ag22
ag2
ag34
ag4
aa(lp508
g24
ag12
ag16
ag32
ag4
ag30
ag14
ag8
ag26
ag22
ag34
ag10
ag28
ag6
ag20
ag2
ag18
aa(lp509
g16
ag14
ag24
ag4
ag26
ag32
ag18
ag10
ag20
ag22
ag2
ag30
ag28
ag34
ag8
ag12
ag6
aa(lp510
g34
ag26
ag2
ag12
ag10
ag24
ag14
ag30
ag32
ag20
ag16
ag28
ag18
ag6
ag4
ag22
ag8
aa(lp511
g2
ag34
ag18
ag20
ag32
ag12
ag4
ag10
ag26
ag8
ag30
ag14
ag6
ag28
ag16
ag24
ag22
aa(lp512
g4
ag30
ag16
ag22
ag18
ag2
ag20
ag32
ag28
ag26
ag14
ag10
ag8
ag34
ag12
ag6
ag24
aa(lp513
g32
ag10
ag18
ag26
ag16
ag12
ag28
ag34
ag6
ag4
ag24
ag20
ag30
ag8
ag14
ag2
ag22
aa(lp514
g32
ag26
ag14
ag4
ag2
ag20
ag12
ag6
ag28
ag30
ag8
ag22
ag16
ag18
ag34
ag10
ag24
aa(lp515
g16
ag10
ag2
ag34
ag8
ag22
ag4
ag14
ag20
ag26
ag18
ag32
ag6
ag30
ag12
ag24
ag28
aa(lp516
g14
ag4
ag28
ag26
ag32
ag6
ag16
ag34
ag18
ag30
ag22
ag2
ag24
ag20
ag10
ag8
ag12
aa(lp517
g16
ag12
ag24
ag4
ag2
ag28
ag10
ag14
ag26
ag8
ag18
ag34
ag30
ag20
ag32
ag6
ag22
aa(lp518
g34
ag18
ag8
ag10
ag12
ag2
ag24
ag32
ag22
ag20
ag4
ag26
ag16
ag14
ag28
ag6
ag30
aa(lp519
g24
ag22
ag6
ag28
ag26
ag4
ag18
ag10
ag30
ag16
ag12
ag34
ag14
ag8
ag2
ag32
ag20
aa(lp520
g20
ag22
ag14
ag28
ag34
ag2
ag26
ag16
ag32
ag6
ag12
ag4
ag30
ag18
ag8
ag10
ag24
aa(lp521
g26
ag32
ag34
ag18
ag20
ag10
ag6
ag4
ag30
ag8
ag16
ag22
ag2
ag12
ag24
ag28
ag14
aa(lp522
g14
ag10
ag22
ag6
ag20
ag18
ag26
ag24
ag32
ag34
ag30
ag12
ag28
ag8
ag2
ag4
ag16
aa(lp523
g14
ag24
ag32
ag6
ag30
ag34
ag20
ag8
ag26
ag18
ag22
ag10
ag12
ag4
ag16
ag28
ag2
aa(lp524
g12
ag8
ag10
ag4
ag24
ag18
ag32
ag22
ag14
ag28
ag30
ag6
ag2
ag20
ag26
ag34
ag16
aa(lp525
g6
ag32
ag14
ag12
ag26
ag28
ag22
ag20
ag2
ag8
ag16
ag18
ag24
ag4
ag10
ag30
ag34
aa(lp526
g20
ag8
ag6
ag2
ag34
ag12
ag30
ag32
ag18
ag4
ag26
ag24
ag14
ag28
ag10
ag22
ag16
aa(lp527
g20
ag4
ag2
ag34
ag30
ag14
ag10
ag26
ag24
ag28
ag18
ag6
ag22
ag8
ag32
ag16
ag12
aa(lp528
g10
ag34
ag26
ag24
ag32
ag16
ag12
ag4
ag2
ag30
ag8
ag14
ag28
ag18
ag6
ag20
ag22
aa(lp529
g24
ag22
ag12
ag18
ag20
ag26
ag4
ag16
ag14
ag8
ag6
ag32
ag28
ag2
ag30
ag10
ag34
aa(lp530
g32
ag22
ag16
ag18
ag30
ag6
ag28
ag14
ag8
ag24
ag12
ag34
ag20
ag10
ag2
ag26
ag4
aa(lp531
g8
ag20
ag22
ag16
ag24
ag12
ag6
ag28
ag18
ag34
ag26
ag30
ag14
ag10
ag32
ag2
ag4
aa(lp532
g8
ag20
ag30
ag10
ag14
ag34
ag32
ag24
ag18
ag28
ag22
ag6
ag2
ag12
ag4
ag26
ag16
aa(lp533
g8
ag34
ag6
ag22
ag2
ag10
ag20
ag16
ag24
ag32
ag12
ag18
ag30
ag28
ag26
ag14
ag4
aa(lp534
g32
ag2
ag24
ag10
ag26
ag30
ag34
ag18
ag22
ag20
ag4
ag8
ag16
ag12
ag14
ag6
ag28
aa(lp535
g20
ag32
ag12
ag26
ag8
ag10
ag30
ag6
ag18
ag4
ag14
ag28
ag16
ag24
ag2
ag22
ag34
aa(lp536
g30
ag26
ag34
ag6
ag14
ag20
ag10
ag24
ag32
ag28
ag4
ag8
ag2
ag18
ag16
ag12
ag22
aa(lp537
g14
ag6
ag22
ag8
ag34
ag24
ag30
ag32
ag20
ag18
ag2
ag10
ag26
ag28
ag16
ag12
ag4
aa(lp538
g18
ag10
ag20
ag28
ag14
ag6
ag16
ag26
ag22
ag8
ag4
ag2
ag24
ag12
ag32
ag34
ag30
aa(lp539
g12
ag18
ag2
ag6
ag10
ag22
ag4
ag28
ag14
ag26
ag20
ag30
ag32
ag24
ag8
ag34
ag16
aa(lp540
g18
ag2
ag30
ag22
ag34
ag6
ag14
ag16
ag4
ag28
ag26
ag20
ag10
ag8
ag24
ag32
ag12
aa(lp541
g32
ag6
ag16
ag30
ag18
ag28
ag12
ag4
ag8
ag24
ag20
ag26
ag34
ag14
ag22
ag2
ag10
aa(lp542
g8
ag12
ag20
ag34
ag24
ag10
ag28
ag6
ag22
ag16
ag14
ag4
ag2
ag18
ag26
ag32
ag30
aa(lp543
g20
ag8
ag2
ag24
ag32
ag18
ag22
ag6
ag4
ag28
ag10
ag16
ag12
ag30
ag14
ag26
ag34
aa(lp544
g20
ag26
ag10
ag12
ag18
ag24
ag22
ag8
ag14
ag6
ag4
ag2
ag30
ag16
ag34
ag32
ag28
aa(lp545
g24
ag16
ag20
ag30
ag4
ag34
ag2
ag12
ag22
ag32
ag14
ag8
ag28
ag10
ag18
ag6
ag26
aa(lp546
g24
ag18
ag30
ag16
ag26
ag28
ag2
ag14
ag6
ag20
ag8
ag10
ag12
ag32
ag22
ag4
ag34
aa(lp547
g16
ag26
ag30
ag8
ag2
ag20
ag32
ag34
ag12
ag14
ag24
ag6
ag22
ag4
ag18
ag28
ag10
aa(lp548
g34
ag22
ag26
ag20
ag18
ag30
ag28
ag2
ag14
ag32
ag4
ag6
ag8
ag16
ag10
ag24
ag12
aa(lp549
g20
ag6
ag34
ag8
ag24
ag32
ag4
ag12
ag2
ag10
ag22
ag14
ag18
ag16
ag28
ag30
ag26
aa(lp550
g14
ag22
ag2
ag16
ag28
ag4
ag8
ag26
ag12
ag20
ag24
ag34
ag6
ag18
ag30
ag10
ag32
aa(lp551
g32
ag18
ag2
ag22
ag24
ag12
ag34
ag6
ag26
ag20
ag16
ag14
ag4
ag8
ag28
ag30
ag10
aa(lp552
g22
ag8
ag14
ag12
ag6
ag30
ag26
ag32
ag28
ag34
ag20
ag2
ag10
ag18
ag4
ag16
ag24
aa(lp553
g16
ag30
ag20
ag24
ag34
ag18
ag12
ag2
ag10
ag14
ag8
ag26
ag4
ag32
ag6
ag22
ag28
aa(lp554
g8
ag22
ag32
ag6
ag26
ag30
ag14
ag4
ag18
ag28
ag10
ag16
ag20
ag34
ag2
ag24
ag12
aa(lp555
g26
ag16
ag12
ag10
ag18
ag4
ag34
ag6
ag24
ag32
ag30
ag20
ag28
ag8
ag22
ag14
ag2
aa(lp556
g26
ag6
ag14
ag34
ag2
ag10
ag16
ag28
ag20
ag24
ag22
ag32
ag18
ag4
ag12
ag8
ag30
aa(lp557
g22
ag12
ag32
ag14
ag10
ag34
ag2
ag8
ag20
ag28
ag24
ag26
ag4
ag6
ag18
ag16
ag30
aa(lp558
g18
ag20
ag2
ag16
ag4
ag14
ag8
ag28
ag24
ag6
ag22
ag32
ag10
ag34
ag30
ag26
ag12
aa(lp559
g14
ag24
ag10
ag12
ag30
ag34
ag28
ag6
ag26
ag2
ag8
ag32
ag20
ag22
ag4
ag16
ag18
aa(lp560
g16
ag34
ag10
ag28
ag26
ag6
ag4
ag14
ag30
ag32
ag8
ag20
ag12
ag24
ag18
ag2
ag22
aa(lp561
g2
ag10
ag6
ag14
ag34
ag24
ag26
ag16
ag32
ag12
ag8
ag22
ag28
ag20
ag18
ag30
ag4
aa(lp562
g34
ag24
ag16
ag6
ag26
ag30
ag20
ag32
ag8
ag12
ag10
ag14
ag22
ag4
ag18
ag28
ag2
aa(lp563
g32
ag18
ag22
ag4
ag24
ag30
ag6
ag16
ag10
ag34
ag2
ag14
ag28
ag26
ag20
ag12
ag8
aa(lp564
g22
ag12
ag26
ag6
ag4
ag8
ag30
ag32
ag18
ag10
ag20
ag28
ag34
ag24
ag2
ag14
ag16
aa(lp565
g14
ag20
ag16
ag2
ag32
ag34
ag8
ag18
ag30
ag24
ag10
ag4
ag28
ag22
ag12
ag26
ag6
aa(lp566
g34
ag14
ag10
ag30
ag20
ag22
ag4
ag12
ag8
ag18
ag2
ag28
ag26
ag6
ag24
ag16
ag32
aa(lp567
g6
ag30
ag10
ag16
ag34
ag20
ag32
ag18
ag8
ag24
ag14
ag2
ag22
ag26
ag4
ag12
ag28
aa(lp568
g22
ag32
ag12
ag30
ag26
ag28
ag18
ag16
ag14
ag6
ag24
ag34
ag8
ag2
ag4
ag10
ag20
aa(lp569
g14
ag34
ag12
ag32
ag18
ag20
ag30
ag10
ag2
ag26
ag16
ag24
ag4
ag28
ag22
ag6
ag8
aa(lp570
g28
ag22
ag8
ag2
ag18
ag24
ag12
ag26
ag4
ag10
ag32
ag14
ag16
ag34
ag30
ag6
ag20
aa(lp571
g34
ag6
ag28
ag30
ag14
ag2
ag24
ag20
ag26
ag22
ag32
ag10
ag4
ag12
ag8
ag18
ag16
aa(lp572
g4
ag8
ag34
ag18
ag14
ag2
ag20
ag10
ag22
ag24
ag30
ag32
ag28
ag16
ag12
ag6
ag26
aa(lp573
g34
ag28
ag24
ag6
ag8
ag2
ag16
ag4
ag22
ag14
ag32
ag12
ag10
ag18
ag20
ag30
ag26
aa(lp574
g24
ag10
ag14
ag18
ag28
ag30
ag26
ag34
ag6
ag12
ag32
ag4
ag2
ag20
ag16
ag8
ag22
aa(lp575
g18
ag10
ag2
ag6
ag34
ag4
ag12
ag20
ag30
ag32
ag28
ag14
ag22
ag24
ag26
ag8
ag16
aa(lp576
g2
ag32
ag4
ag34
ag18
ag20
ag8
ag10
ag24
ag30
ag12
ag26
ag6
ag14
ag16
ag22
ag28
aa(lp577
g20
ag22
ag34
ag4
ag2
ag10
ag16
ag24
ag8
ag12
ag28
ag14
ag18
ag26
ag6
ag32
ag30
aa(lp578
g30
ag14
ag8
ag28
ag6
ag2
ag18
ag34
ag32
ag12
ag4
ag20
ag24
ag26
ag16
ag22
ag10
aa(lp579
g22
ag6
ag16
ag2
ag20
ag10
ag14
ag8
ag4
ag32
ag34
ag30
ag26
ag12
ag24
ag28
ag18
aa(lp580
g14
ag24
ag2
ag4
ag34
ag10
ag6
ag26
ag12
ag30
ag32
ag22
ag28
ag8
ag18
ag20
ag16
aa(lp581
g30
ag26
ag10
ag16
ag8
ag20
ag34
ag6
ag32
ag2
ag14
ag24
ag12
ag22
ag18
ag4
ag28
aa(lp582
g34
ag18
ag32
ag4
ag16
ag14
ag6
ag10
ag26
ag2
ag22
ag24
ag28
ag8
ag30
ag20
ag12
aa(lp583
g20
ag10
ag30
ag32
ag24
ag28
ag2
ag26
ag22
ag18
ag14
ag12
ag4
ag34
ag8
ag6
ag16
aa(lp584
g30
ag16
ag2
ag32
ag24
ag14
ag34
ag12
ag4
ag8
ag18
ag10
ag26
ag28
ag22
ag20
ag6
aa(lp585
g22
ag20
ag28
ag34
ag24
ag6
ag26
ag32
ag8
ag14
ag12
ag18
ag30
ag10
ag16
ag2
ag4
aa(lp586
g16
ag30
ag26
ag24
ag34
ag10
ag20
ag14
ag8
ag4
ag12
ag2
ag18
ag28
ag32
ag6
ag22
aa(lp587
g26
ag4
ag20
ag22
ag34
ag16
ag8
ag12
ag10
ag28
ag14
ag24
ag30
ag18
ag32
ag2
ag6
aa(lp588
g16
ag32
ag14
ag26
ag34
ag22
ag12
ag6
ag24
ag10
ag30
ag4
ag2
ag18
ag8
ag20
ag28
aa(lp589
g20
ag6
ag12
ag18
ag14
ag34
ag32
ag16
ag22
ag8
ag28
ag10
ag26
ag2
ag30
ag24
ag4
aa(lp590
g32
ag34
ag2
ag18
ag4
ag8
ag6
ag24
ag10
ag28
ag22
ag30
ag16
ag12
ag14
ag26
ag20
aa(lp591
g28
ag32
ag12
ag20
ag34
ag26
ag14
ag8
ag18
ag24
ag16
ag22
ag4
ag30
ag10
ag6
ag2
aa(lp592
g26
ag22
ag30
ag20
ag32
ag6
ag18
ag10
ag24
ag14
ag2
ag34
ag8
ag12
ag16
ag4
ag28
aa(lp593
g20
ag22
ag6
ag16
ag26
ag18
ag2
ag28
ag34
ag32
ag10
ag14
ag8
ag24
ag12
ag30
ag4
aa(lp594
g24
ag34
ag18
ag10
ag22
ag12
ag14
ag8
ag16
ag6
ag32
ag30
ag26
ag2
ag4
ag20
ag28
aa(lp595
g12
ag26
ag20
ag32
ag24
ag34
ag16
ag8
ag4
ag18
ag6
ag22
ag28
ag14
ag30
ag10
ag2
aa(lp596
g28
ag4
ag30
ag6
ag2
ag8
ag34
ag16
ag14
ag32
ag12
ag10
ag18
ag22
ag26
ag24
ag20
aa(lp597
g20
ag28
ag12
ag22
ag2
ag24
ag10
ag32
ag4
ag14
ag6
ag8
ag18
ag30
ag26
ag34
ag16
aa(lp598
g18
ag32
ag8
ag22
ag30
ag6
ag14
ag12
ag26
ag20
ag34
ag10
ag2
ag28
ag24
ag16
ag4
aa(lp599
g10
ag12
ag14
ag8
ag24
ag16
ag4
ag20
ag22
ag32
ag26
ag34
ag30
ag28
ag2
ag6
ag18
aa(lp600
g20
ag30
ag32
ag18
ag6
ag24
ag22
ag28
ag4
ag10
ag2
ag16
ag26
ag14
ag8
ag12
ag34
aa(lp601
g32
ag34
ag8
ag22
ag14
ag2
ag16
ag24
ag12
ag30
ag20
ag26
ag28
ag10
ag6
ag4
ag18
aa(lp602
g24
ag16
ag22
ag26
ag32
ag10
ag28
ag6
ag12
ag18
ag4
ag2
ag30
ag34
ag20
ag14
ag8
aa(lp603
g10
ag24
ag28
ag6
ag8
ag14
ag22
ag26
ag4
ag18
ag16
ag30
ag20
ag34
ag32
ag2
ag12
aa(lp604
g2
ag32
ag14
ag4
ag20
ag18
ag12
ag26
ag22
ag10
ag28
ag24
ag30
ag6
ag34
ag16
ag8
aa(lp605
g10
ag32
ag4
ag30
ag22
ag8
ag18
ag2
ag34
ag24
ag12
ag28
ag20
ag6
ag26
ag14
ag16
aa(lp606
g32
ag16
ag18
ag28
ag26
ag34
ag6
ag24
ag10
ag8
ag20
ag14
ag2
ag4
ag12
ag30
ag22
aa(lp607
g10
ag32
ag12
ag2
ag24
ag22
ag18
ag28
ag4
ag8
ag26
ag6
ag20
ag14
ag34
ag30
ag16
aa(lp608
g28
ag18
ag26
ag2
ag10
ag34
ag22
ag32
ag20
ag16
ag12
ag6
ag8
ag30
ag24
ag4
ag14
aa(lp609
g6
ag20
ag8
ag12
ag26
ag32
ag4
ag10
ag34
ag2
ag22
ag18
ag14
ag24
ag30
ag28
ag16
aa(lp610
g18
ag26
ag12
ag14
ag6
ag34
ag4
ag30
ag32
ag24
ag20
ag8
ag22
ag10
ag28
ag16
ag2
aa(lp611
g32
ag20
ag26
ag16
ag2
ag14
ag24
ag22
ag30
ag4
ag28
ag8
ag34
ag10
ag6
ag18
ag12
aa(lp612
g6
ag24
ag28
ag22
ag20
ag4
ag34
ag26
ag2
ag30
ag14
ag8
ag10
ag32
ag16
ag12
ag18
aa(lp613
g32
ag22
ag16
ag4
ag30
ag18
ag2
ag34
ag26
ag6
ag28
ag14
ag24
ag10
ag8
ag12
ag20
aa(lp614
g6
ag28
ag26
ag22
ag16
ag14
ag2
ag12
ag4
ag8
ag18
ag30
ag20
ag32
ag24
ag34
ag10
aa(lp615
g6
ag30
ag32
ag34
ag10
ag16
ag24
ag26
ag22
ag20
ag18
ag28
ag4
ag8
ag2
ag12
ag14
aa(lp616
g20
ag8
ag14
ag2
ag18
ag26
ag22
ag24
ag12
ag4
ag10
ag28
ag32
ag6
ag34
ag30
ag16
aa(lp617
g30
ag2
ag26
ag12
ag14
ag20
ag18
ag34
ag10
ag24
ag16
ag6
ag8
ag28
ag4
ag32
ag22
aa(lp618
g14
ag24
ag34
ag26
ag22
ag28
ag20
ag32
ag10
ag8
ag4
ag12
ag18
ag16
ag2
ag30
ag6
aa(lp619
g16
ag24
ag28
ag4
ag8
ag10
ag18
ag22
ag12
ag20
ag30
ag26
ag14
ag6
ag2
ag32
ag34
aa(lp620
g16
ag20
ag12
ag32
ag18
ag10
ag26
ag28
ag22
ag4
ag2
ag30
ag24
ag34
ag6
ag8
ag14
aa(lp621
g2
ag6
ag26
ag24
ag20
ag12
ag32
ag16
ag8
ag34
ag18
ag10
ag22
ag4
ag14
ag30
ag28
aa(lp622
g12
ag14
ag2
ag22
ag26
ag6
ag8
ag24
ag32
ag4
ag18
ag10
ag30
ag16
ag34
ag20
ag28
aa(lp623
g6
ag14
ag18
ag16
ag34
ag2
ag20
ag8
ag30
ag12
ag32
ag4
ag22
ag24
ag26
ag10
ag28
aa(lp624
g18
ag34
ag14
ag20
ag2
ag26
ag30
ag12
ag10
ag16
ag6
ag4
ag8
ag24
ag22
ag32
ag28
aa(lp625
g2
ag8
ag26
ag32
ag6
ag34
ag22
ag16
ag10
ag28
ag12
ag30
ag4
ag20
ag24
ag18
ag14
aa(lp626
g20
ag28
ag4
ag18
ag2
ag34
ag14
ag30
ag10
ag12
ag16
ag22
ag24
ag6
ag26
ag32
ag8
aa(lp627
g16
ag8
ag18
ag32
ag6
ag2
ag12
ag28
ag24
ag20
ag22
ag26
ag10
ag4
ag34
ag14
ag30
aa(lp628
g12
ag20
ag30
ag10
ag34
ag18
ag28
ag32
ag14
ag8
ag26
ag2
ag16
ag4
ag6
ag22
ag24
aa(lp629
g14
ag22
ag8
ag2
ag6
ag24
ag30
ag34
ag4
ag16
ag32
ag10
ag28
ag26
ag18
ag20
ag12
aa(lp630
g14
ag8
ag24
ag16
ag28
ag34
ag30
ag32
ag2
ag18
ag22
ag6
ag4
ag12
ag20
ag10
ag26
aa(lp631
g12
ag32
ag22
ag34
ag20
ag2
ag14
ag4
ag10
ag8
ag26
ag16
ag18
ag24
ag28
ag6
ag30
aa(lp632
g6
ag2
ag18
ag4
ag20
ag14
ag8
ag26
ag22
ag12
ag28
ag30
ag10
ag24
ag16
ag34
ag32
aa(lp633
g20
ag4
ag14
ag30
ag34
ag8
ag10
ag12
ag32
ag22
ag18
ag6
ag16
ag28
ag24
ag26
ag2
aa(lp634
g12
ag6
ag14
ag24
ag34
ag16
ag28
ag8
ag32
ag2
ag20
ag22
ag30
ag10
ag18
ag26
ag4
aa(lp635
g16
ag4
ag26
ag24
ag20
ag28
ag6
ag34
ag14
ag18
ag32
ag10
ag12
ag2
ag22
ag30
ag8
aa(lp636
g4
ag22
ag26
ag20
ag18
ag28
ag10
ag30
ag34
ag16
ag12
ag2
ag14
ag24
ag6
ag8
ag32
aa(lp637
g2
ag28
ag34
ag10
ag24
ag20
ag18
ag32
ag12
ag26
ag16
ag8
ag30
ag4
ag6
ag14
ag22
aa(lp638
g4
ag24
ag34
ag20
ag6
ag12
ag14
ag18
ag22
ag28
ag16
ag8
ag26
ag10
ag32
ag2
ag30
aa(lp639
g6
ag16
ag14
ag2
ag4
ag24
ag34
ag32
ag28
ag12
ag20
ag26
ag10
ag8
ag30
ag18
ag22
aa(lp640
g6
ag12
ag24
ag26
ag18
ag2
ag30
ag4
ag16
ag10
ag22
ag14
ag8
ag32
ag34
ag20
ag28
aa(lp641
g12
ag34
ag20
ag10
ag4
ag18
ag32
ag26
ag24
ag28
ag2
ag30
ag16
ag22
ag6
ag8
ag14
aa(lp642
g22
ag10
ag6
ag26
ag24
ag8
ag4
ag34
ag14
ag12
ag2
ag18
ag28
ag32
ag30
ag16
ag20
aa(lp643
g24
ag18
ag32
ag28
ag34
ag20
ag8
ag10
ag12
ag16
ag22
ag4
ag26
ag14
ag6
ag2
ag30
aa(lp644
g10
ag26
ag18
ag20
ag28
ag8
ag30
ag12
ag22
ag14
ag4
ag2
ag16
ag6
ag34
ag32
ag24
aa(lp645
g12
ag18
ag4
ag24
ag16
ag22
ag20
ag8
ag2
ag28
ag10
ag30
ag26
ag6
ag14
ag32
ag34
aa(lp646
g22
ag34
ag20
ag4
ag12
ag14
ag32
ag26
ag10
ag18
ag24
ag6
ag2
ag8
ag30
ag16
ag28
aa(lp647
g12
ag30
ag4
ag8
ag18
ag10
ag28
ag34
ag22
ag2
ag24
ag26
ag20
ag14
ag16
ag32
ag6
aa(lp648
g16
ag2
ag8
ag22
ag18
ag34
ag32
ag20
ag6
ag14
ag30
ag26
ag10
ag24
ag4
ag28
ag12
aa(lp649
g18
ag8
ag14
ag6
ag4
ag32
ag16
ag30
ag2
ag22
ag34
ag24
ag26
ag12
ag28
ag10
ag20
aa(lp650
g18
ag34
ag24
ag26
ag2
ag20
ag32
ag14
ag12
ag8
ag30
ag6
ag16
ag4
ag22
ag10
ag28
aa(lp651
g30
ag34
ag32
ag26
ag16
ag12
ag22
ag20
ag24
ag2
ag6
ag4
ag28
ag8
ag10
ag18
ag14
aa(lp652
g8
ag30
ag14
ag16
ag6
ag12
ag28
ag32
ag20
ag18
ag26
ag34
ag24
ag22
ag10
ag4
ag2
aa(lp653
g32
ag20
ag28
ag18
ag4
ag34
ag6
ag30
ag10
ag16
ag12
ag14
ag2
ag26
ag8
ag24
ag22
aa(lp654
g2
ag8
ag34
ag28
ag4
ag18
ag14
ag10
ag32
ag12
ag30
ag22
ag16
ag26
ag6
ag24
ag20
aa(lp655
g22
ag24
ag32
ag26
ag8
ag4
ag34
ag2
ag28
ag12
ag18
ag16
ag14
ag20
ag6
ag10
ag30
aa(lp656
g24
ag4
ag30
ag14
ag10
ag28
ag8
ag20
ag22
ag18
ag26
ag34
ag2
ag16
ag12
ag6
ag32
aa(lp657
g34
ag24
ag20
ag6
ag18
ag32
ag30
ag26
ag12
ag14
ag10
ag22
ag8
ag4
ag2
ag16
ag28
aa(lp658
g34
ag16
ag14
ag6
ag2
ag12
ag26
ag28
ag30
ag10
ag32
ag4
ag20
ag24
ag18
ag22
ag8
aa(lp659
g18
ag4
ag12
ag34
ag6
ag26
ag20
ag32
ag22
ag2
ag28
ag30
ag10
ag16
ag24
ag14
ag8
aa(lp660
g14
ag12
ag10
ag30
ag20
ag32
ag18
ag22
ag16
ag2
ag28
ag34
ag6
ag26
ag24
ag4
ag8
aa(lp661
g28
ag18
ag4
ag32
ag14
ag8
ag34
ag20
ag24
ag16
ag26
ag22
ag6
ag30
ag2
ag12
ag10
aa(lp662
g18
ag2
ag12
ag32
ag28
ag6
ag34
ag20
ag22
ag16
ag26
ag24
ag30
ag4
ag10
ag14
ag8
aa(lp663
g24
ag4
ag30
ag20
ag16
ag14
ag28
ag6
ag26
ag10
ag22
ag12
ag18
ag2
ag8
ag32
ag34
aa(lp664
g20
ag2
ag12
ag6
ag26
ag8
ag10
ag22
ag24
ag28
ag34
ag16
ag14
ag4
ag32
ag18
ag30
aa(lp665
g18
ag16
ag4
ag24
ag26
ag22
ag12
ag30
ag8
ag6
ag14
ag32
ag10
ag34
ag20
ag28
ag2
aa(lp666
g2
ag26
ag10
ag14
ag8
ag18
ag12
ag16
ag30
ag6
ag28
ag34
ag32
ag4
ag24
ag22
ag20
aa(lp667
g8
ag20
ag10
ag6
ag30
ag14
ag34
ag28
ag4
ag18
ag16
ag22
ag12
ag32
ag26
ag2
ag24
aa(lp668
g26
ag24
ag6
ag22
ag12
ag28
ag34
ag18
ag10
ag8
ag30
ag4
ag20
ag14
ag32
ag16
ag2
aa(lp669
g2
ag22
ag20
ag26
ag8
ag30
ag4
ag12
ag18
ag28
ag24
ag16
ag10
ag14
ag32
ag6
ag34
aa(lp670
g20
ag32
ag34
ag26
ag24
ag10
ag30
ag22
ag8
ag28
ag14
ag18
ag12
ag6
ag2
ag4
ag16
aa(lp671
g34
ag24
ag32
ag18
ag2
ag12
ag22
ag30
ag16
ag6
ag10
ag8
ag14
ag26
ag20
ag28
ag4
aa(lp672
g8
ag18
ag12
ag4
ag20
ag10
ag2
ag14
ag22
ag16
ag26
ag32
ag30
ag34
ag28
ag24
ag6
aa(lp673
g8
ag24
ag16
ag4
ag2
ag30
ag28
ag10
ag6
ag26
ag34
ag20
ag18
ag12
ag22
ag14
ag32
aa(lp674
g22
ag32
ag24
ag18
ag34
ag12
ag2
ag20
ag10
ag14
ag6
ag4
ag8
ag28
ag26
ag16
ag30
aa(lp675
g16
ag8
ag12
ag22
ag30
ag20
ag24
ag18
ag32
ag4
ag10
ag28
ag34
ag6
ag2
ag14
ag26
aa(lp676
g8
ag10
ag20
ag6
ag32
ag26
ag34
ag12
ag4
ag24
ag28
ag30
ag18
ag2
ag22
ag14
ag16
aa(lp677
g18
ag8
ag14
ag26
ag28
ag2
ag16
ag4
ag30
ag32
ag10
ag20
ag6
ag24
ag34
ag22
ag12
aa(lp678
g22
ag16
ag14
ag6
ag28
ag32
ag26
ag4
ag12
ag24
ag20
ag34
ag30
ag8
ag2
ag10
ag18
aa(lp679
g20
ag6
ag30
ag14
ag12
ag2
ag28
ag26
ag22
ag8
ag18
ag32
ag34
ag24
ag4
ag16
ag10
aa(lp680
g30
ag18
ag2
ag10
ag24
ag26
ag20
ag34
ag22
ag8
ag4
ag28
ag12
ag16
ag14
ag6
ag32
aa(lp681
g2
ag4
ag32
ag34
ag30
ag18
ag24
ag22
ag8
ag16
ag10
ag12
ag26
ag6
ag20
ag28
ag14
aa(lp682
g6
ag20
ag2
ag14
ag12
ag4
ag18
ag10
ag32
ag26
ag30
ag22
ag28
ag16
ag24
ag8
ag34
aa(lp683
g26
ag18
ag14
ag32
ag22
ag2
ag24
ag10
ag34
ag16
ag6
ag8
ag28
ag20
ag30
ag12
ag4
aa(lp684
g30
ag28
ag14
ag24
ag6
ag16
ag32
ag8
ag26
ag10
ag2
ag12
ag34
ag22
ag4
ag20
ag18
aa(lp685
g2
ag10
ag32
ag16
ag4
ag28
ag14
ag12
ag22
ag6
ag24
ag26
ag34
ag18
ag20
ag8
ag30
aa(lp686
g10
ag18
ag2
ag4
ag8
ag14
ag24
ag22
ag16
ag30
ag32
ag28
ag34
ag6
ag26
ag12
ag20
aa(lp687
g8
ag28
ag18
ag24
ag26
ag12
ag20
ag4
ag10
ag30
ag6
ag2
ag32
ag16
ag34
ag22
ag14
aa(lp688
g22
ag30
ag34
ag8
ag32
ag16
ag26
ag2
ag28
ag14
ag6
ag4
ag20
ag12
ag10
ag18
ag24
aa(lp689
g26
ag20
ag28
ag34
ag6
ag32
ag18
ag10
ag8
ag4
ag16
ag14
ag12
ag22
ag2
ag24
ag30
aa(lp690
g34
ag20
ag6
ag2
ag12
ag22
ag14
ag16
ag8
ag26
ag18
ag32
ag4
ag28
ag10
ag24
ag30
aa(lp691
g10
ag4
ag22
ag20
ag12
ag34
ag6
ag8
ag24
ag26
ag2
ag28
ag14
ag32
ag30
ag16
ag18
aa(lp692
g4
ag22
ag34
ag18
ag10
ag2
ag32
ag24
ag8
ag12
ag14
ag28
ag26
ag6
ag20
ag30
ag16
aa(lp693
g4
ag14
ag30
ag12
ag8
ag2
ag18
ag26
ag32
ag16
ag20
ag6
ag22
ag28
ag34
ag24
ag10
aa(lp694
g14
ag16
ag18
ag26
ag6
ag34
ag4
ag20
ag8
ag22
ag2
ag28
ag10
ag12
ag30
ag32
ag24
aa(lp695
g10
ag16
ag12
ag14
ag6
ag22
ag28
ag26
ag4
ag24
ag30
ag20
ag8
ag2
ag32
ag34
ag18
aa(lp696
g8
ag2
ag34
ag6
ag22
ag14
ag20
ag4
ag16
ag12
ag32
ag10
ag30
ag18
ag26
ag24
ag28
aa(lp697
g2
ag34
ag16
ag10
ag32
ag30
ag12
ag6
ag4
ag28
ag24
ag18
ag14
ag8
ag22
ag20
ag26
aa(lp698
g2
ag16
ag8
ag12
ag14
ag20
ag24
ag28
ag32
ag22
ag6
ag34
ag10
ag30
ag18
ag4
ag26
aa(lp699
g22
ag28
ag24
ag18
ag14
ag2
ag4
ag32
ag16
ag34
ag20
ag10
ag8
ag12
ag6
ag26
ag30
aa(lp700
g4
ag34
ag10
ag32
ag28
ag24
ag8
ag30
ag26
ag20
ag16
ag18
ag14
ag12
ag22
ag2
ag6
aa(lp701
g10
ag30
ag14
ag2
ag8
ag20
ag22
ag28
ag18
ag32
ag24
ag6
ag4
ag26
ag16
ag34
ag12
aa(lp702
g14
ag2
ag30
ag10
ag32
ag24
ag20
ag16
ag8
ag12
ag18
ag28
ag26
ag6
ag4
ag22
ag34
aa(lp703
g16
ag12
ag10
ag28
ag22
ag6
ag24
ag20
ag26
ag2
ag32
ag34
ag30
ag4
ag18
ag8
ag14
aa(lp704
g10
ag28
ag4
ag12
ag22
ag6
ag24
ag18
ag14
ag16
ag30
ag32
ag20
ag34
ag26
ag8
ag2
aa(lp705
g34
ag22
ag14
ag28
ag8
ag12
ag4
ag6
ag10
ag2
ag16
ag26
ag20
ag24
ag32
ag30
ag18
aa(lp706
g28
ag22
ag34
ag16
ag32
ag20
ag18
ag2
ag14
ag4
ag24
ag12
ag30
ag26
ag10
ag6
ag8
aa(lp707
g8
ag2
ag4
ag26
ag32
ag14
ag16
ag22
ag6
ag34
ag10
ag28
ag20
ag24
ag30
ag12
ag18
aa(lp708
g22
ag16
ag28
ag4
ag26
ag18
ag20
ag32
ag34
ag30
ag8
ag14
ag24
ag2
ag12
ag6
ag10
aa(lp709
g18
ag6
ag12
ag20
ag4
ag16
ag10
ag30
ag8
ag26
ag14
ag32
ag22
ag2
ag34
ag24
ag28
aa(lp710
g22
ag4
ag18
ag24
ag6
ag28
ag10
ag30
ag20
ag32
ag14
ag8
ag12
ag2
ag26
ag34
ag16
aa(lp711
g18
ag14
ag22
ag20
ag32
ag6
ag10
ag4
ag34
ag2
ag28
ag12
ag30
ag8
ag16
ag24
ag26
aa(lp712
g26
ag6
ag22
ag4
ag20
ag16
ag2
ag32
ag12
ag34
ag28
ag10
ag14
ag24
ag30
ag18
ag8
aa(lp713
g20
ag30
ag34
ag6
ag16
ag8
ag24
ag2
ag10
ag28
ag4
ag26
ag22
ag12
ag18
ag32
ag14
aa(lp714
g6
ag10
ag2
ag26
ag24
ag4
ag14
ag12
ag34
ag32
ag22
ag18
ag8
ag16
ag20
ag30
ag28
aa(lp715
g34
ag24
ag28
ag12
ag10
ag8
ag22
ag16
ag26
ag18
ag32
ag14
ag30
ag6
ag2
ag20
ag4
aa(lp716
g4
ag10
ag16
ag20
ag34
ag6
ag8
ag14
ag22
ag26
ag28
ag12
ag2
ag24
ag18
ag30
ag32
aa(lp717
g32
ag14
ag18
ag8
ag20
ag16
ag4
ag34
ag26
ag30
ag2
ag10
ag28
ag22
ag12
ag24
ag6
aa(lp718
g14
ag26
ag22
ag30
ag12
ag2
ag8
ag18
ag32
ag20
ag10
ag6
ag16
ag34
ag28
ag4
ag24
aa(lp719
g16
ag14
ag28
ag20
ag6
ag30
ag32
ag18
ag8
ag12
ag24
ag34
ag2
ag22
ag4
ag26
ag10
aa(lp720
g22
ag30
ag14
ag18
ag28
ag32
ag4
ag24
ag8
ag2
ag12
ag10
ag16
ag20
ag26
ag6
ag34
aa(lp721
g18
ag16
ag8
ag34
ag6
ag4
ag10
ag26
ag14
ag2
ag22
ag30
ag12
ag32
ag24
ag20
ag28
aa(lp722
g24
ag16
ag28
ag32
ag12
ag18
ag4
ag20
ag8
ag10
ag2
ag6
ag14
ag30
ag22
ag34
ag26
aa(lp723
g4
ag34
ag26
ag16
ag32
ag22
ag8
ag24
ag12
ag14
ag6
ag30
ag10
ag18
ag2
ag20
ag28
aa(lp724
g4
ag26
ag10
ag2
ag6
ag16
ag24
ag18
ag12
ag8
ag32
ag14
ag34
ag28
ag22
ag30
ag20
aa(lp725
g20
ag34
ag6
ag16
ag32
ag22
ag14
ag12
ag24
ag28
ag26
ag8
ag30
ag2
ag18
ag4
ag10
aa(lp726
g4
ag24
ag30
ag14
ag18
ag10
ag28
ag2
ag32
ag6
ag34
ag16
ag12
ag20
ag26
ag8
ag22
aa(lp727
g26
ag2
ag8
ag4
ag14
ag20
ag10
ag12
ag22
ag18
ag24
ag32
ag28
ag16
ag6
ag34
ag30
aa(lp728
g4
ag34
ag22
ag30
ag20
ag6
ag16
ag14
ag24
ag18
ag26
ag2
ag12
ag32
ag10
ag28
ag8
aa(lp729
g26
ag6
ag18
ag8
ag34
ag14
ag30
ag16
ag28
ag24
ag2
ag32
ag10
ag20
ag4
ag22
ag12
aa(lp730
g28
ag6
ag18
ag32
ag16
ag4
ag12
ag20
ag14
ag22
ag10
ag26
ag24
ag34
ag8
ag30
ag2
aa(lp731
g14
ag26
ag2
ag6
ag8
ag32
ag30
ag34
ag10
ag24
ag18
ag16
ag28
ag22
ag20
ag12
ag4
aa(lp732
g26
ag24
ag28
ag10
ag14
ag34
ag20
ag4
ag8
ag16
ag18
ag6
ag12
ag22
ag32
ag2
ag30
aa(lp733
g20
ag24
ag8
ag32
ag10
ag28
ag2
ag6
ag18
ag16
ag4
ag26
ag30
ag14
ag12
ag22
ag34
aa(lp734
g12
ag18
ag20
ag28
ag2
ag30
ag22
ag32
ag16
ag26
ag14
ag34
ag10
ag8
ag6
ag24
ag4
aa(lp735
g14
ag12
ag28
ag24
ag22
ag32
ag16
ag20
ag2
ag26
ag30
ag34
ag8
ag18
ag4
ag10
ag6
aa(lp736
g6
ag12
ag18
ag24
ag10
ag22
ag14
ag34
ag30
ag28
ag8
ag16
ag26
ag32
ag2
ag20
ag4
aa(lp737
g6
ag4
ag24
ag28
ag20
ag34
ag16
ag10
ag18
ag12
ag8
ag32
ag26
ag30
ag14
ag2
ag22
aa(lp738
g28
ag14
ag10
ag20
ag24
ag26
ag12
ag18
ag6
ag2
ag22
ag32
ag16
ag8
ag30
ag4
ag34
aa(lp739
g34
ag6
ag12
ag32
ag24
ag4
ag10
ag8
ag14
ag18
ag16
ag2
ag30
ag28
ag26
ag20
ag22
aa(lp740
g6
ag24
ag16
ag32
ag4
ag14
ag30
ag34
ag12
ag8
ag20
ag28
ag10
ag26
ag18
ag2
ag22
aa(lp741
g32
ag30
ag14
ag6
ag20
ag28
ag22
ag18
ag8
ag26
ag34
ag2
ag16
ag4
ag12
ag10
ag24
aa(lp742
g12
ag18
ag14
ag2
ag28
ag24
ag20
ag32
ag22
ag6
ag26
ag4
ag34
ag16
ag30
ag10
ag8
aa(lp743
g30
ag20
ag32
ag18
ag14
ag10
ag26
ag22
ag8
ag16
ag28
ag12
ag2
ag4
ag34
ag6
ag24
aa(lp744
g14
ag16
ag30
ag2
ag24
ag34
ag10
ag8
ag20
ag26
ag28
ag12
ag4
ag18
ag22
ag6
ag32
aa(lp745
g4
ag24
ag10
ag18
ag34
ag8
ag16
ag14
ag20
ag6
ag12
ag26
ag22
ag28
ag2
ag30
ag32
aa(lp746
g6
ag32
ag20
ag2
ag4
ag34
ag10
ag28
ag16
ag8
ag12
ag22
ag24
ag30
ag26
ag14
ag18
aa(lp747
g8
ag20
ag32
ag10
ag34
ag26
ag28
ag2
ag16
ag18
ag12
ag14
ag22
ag30
ag24
ag4
ag6
aa(lp748
g32
ag8
ag24
ag12
ag18
ag4
ag6
ag28
ag2
ag10
ag30
ag34
ag20
ag22
ag14
ag16
ag26
aa(lp749
g20
ag18
ag2
ag24
ag28
ag26
ag32
ag22
ag12
ag8
ag10
ag16
ag6
ag4
ag14
ag30
ag34
aa(lp750
g24
ag10
ag32
ag28
ag16
ag2
ag30
ag18
ag6
ag12
ag26
ag22
ag34
ag14
ag4
ag8
ag20
aa(lp751
g26
ag30
ag12
ag4
ag32
ag6
ag14
ag28
ag10
ag24
ag18
ag2
ag22
ag16
ag20
ag8
ag34
aa(lp752
g14
ag26
ag20
ag10
ag22
ag4
ag28
ag18
ag12
ag32
ag16
ag30
ag34
ag8
ag6
ag24
ag2
aa(lp753
g24
ag30
ag34
ag12
ag26
ag10
ag14
ag28
ag20
ag18
ag32
ag22
ag4
ag2
ag16
ag6
ag8
aa(lp754
g20
ag32
ag4
ag2
ag8
ag6
ag14
ag34
ag10
ag22
ag26
ag18
ag12
ag30
ag16
ag24
ag28
aa(lp755
g34
ag28
ag32
ag4
ag2
ag30
ag6
ag26
ag14
ag24
ag8
ag22
ag18
ag10
ag20
ag16
ag12
aa(lp756
g24
ag8
ag2
ag20
ag10
ag28
ag34
ag22
ag12
ag4
ag6
ag30
ag18
ag16
ag26
ag32
ag14
aa(lp757
g32
ag4
ag24
ag2
ag16
ag10
ag14
ag34
ag18
ag12
ag20
ag6
ag28
ag26
ag22
ag30
ag8
aa(lp758
g12
ag14
ag10
ag16
ag6
ag26
ag2
ag4
ag8
ag24
ag30
ag22
ag32
ag18
ag34
ag20
ag28
aa(lp759
g4
ag34
ag12
ag16
ag10
ag2
ag28
ag20
ag30
ag26
ag6
ag8
ag32
ag18
ag14
ag24
ag22
aa(lp760
g30
ag32
ag26
ag14
ag24
ag12
ag2
ag18
ag8
ag4
ag28
ag20
ag22
ag34
ag16
ag6
ag10
aa(lp761
g10
ag22
ag8
ag32
ag16
ag4
ag28
ag2
ag30
ag20
ag6
ag26
ag34
ag24
ag14
ag18
ag12
aa(lp762
g24
ag20
ag14
ag28
ag8
ag32
ag16
ag34
ag2
ag10
ag4
ag18
ag30
ag6
ag26
ag12
ag22
aa(lp763
g6
ag14
ag28
ag34
ag20
ag2
ag8
ag12
ag18
ag32
ag10
ag22
ag16
ag26
ag24
ag4
ag30
aa(lp764
g2
ag28
ag30
ag24
ag34
ag14
ag32
ag20
ag12
ag10
ag6
ag8
ag26
ag22
ag16
ag18
ag4
aa(lp765
g26
ag20
ag6
ag34
ag16
ag14
ag8
ag4
ag10
ag18
ag2
ag22
ag24
ag12
ag30
ag28
ag32
aa(lp766
g12
ag14
ag28
ag20
ag6
ag10
ag30
ag22
ag32
ag2
ag16
ag26
ag8
ag24
ag4
ag18
ag34
aa(lp767
g8
ag14
ag24
ag22
ag2
ag32
ag16
ag6
ag18
ag4
ag30
ag10
ag12
ag34
ag20
ag28
ag26
aa(lp768
g14
ag2
ag8
ag34
ag24
ag20
ag18
ag28
ag10
ag32
ag22
ag30
ag16
ag26
ag4
ag6
ag12
aa(lp769
g16
ag10
ag6
ag8
ag20
ag4
ag28
ag24
ag14
ag34
ag18
ag22
ag30
ag2
ag12
ag32
ag26
aa(lp770
g26
ag10
ag14
ag30
ag32
ag16
ag20
ag28
ag2
ag24
ag8
ag18
ag12
ag4
ag22
ag34
ag6
aa(lp771
g2
ag14
ag30
ag12
ag24
ag20
ag32
ag34
ag6
ag16
ag8
ag28
ag22
ag4
ag10
ag26
ag18
aa(lp772
g8
ag10
ag12
ag28
ag24
ag6
ag16
ag22
ag26
ag30
ag34
ag32
ag18
ag4
ag20
ag14
ag2
aa(lp773
g10
ag16
ag32
ag6
ag8
ag34
ag28
ag26
ag22
ag20
ag18
ag4
ag24
ag12
ag2
ag14
ag30
aa(lp774
g6
ag2
ag20
ag18
ag24
ag32
ag16
ag28
ag30
ag26
ag4
ag8
ag12
ag34
ag22
ag10
ag14
aa(lp775
g14
ag30
ag2
ag16
ag8
ag4
ag20
ag12
ag34
ag18
ag26
ag32
ag6
ag24
ag28
ag10
ag22
aa(lp776
g32
ag24
ag34
ag16
ag8
ag4
ag22
ag10
ag28
ag6
ag20
ag18
ag12
ag2
ag26
ag14
ag30
aa(lp777
g4
ag26
ag18
ag10
ag6
ag22
ag2
ag32
ag24
ag14
ag8
ag20
ag30
ag34
ag12
ag28
ag16
aa(lp778
g30
ag12
ag32
ag16
ag10
ag20
ag8
ag28
ag14
ag22
ag34
ag18
ag6
ag26
ag2
ag4
ag24
aa(lp779
g10
ag8
ag26
ag24
ag12
ag4
ag20
ag32
ag16
ag22
ag30
ag14
ag28
ag2
ag34
ag18
ag6
aa(lp780
g26
ag30
ag20
ag34
ag2
ag12
ag16
ag24
ag22
ag4
ag18
ag6
ag28
ag14
ag32
ag10
ag8
aa(lp781
g18
ag2
ag4
ag34
ag16
ag24
ag6
ag28
ag10
ag30
ag14
ag8
ag22
ag12
ag26
ag32
ag20
aa(lp782
g28
ag10
ag12
ag30
ag6
ag32
ag4
ag2
ag34
ag22
ag26
ag16
ag20
ag14
ag24
ag18
ag8
aa(lp783
g22
ag4
ag12
ag10
ag14
ag20
ag24
ag2
ag8
ag16
ag30
ag18
ag34
ag28
ag6
ag26
ag32
aa(lp784
g26
ag8
ag12
ag20
ag34
ag16
ag22
ag18
ag2
ag4
ag28
ag32
ag14
ag30
ag10
ag24
ag6
aa(lp785
g26
ag14
ag12
ag24
ag30
ag20
ag6
ag2
ag10
ag34
ag16
ag32
ag22
ag28
ag18
ag8
ag4
aa(lp786
g26
ag34
ag6
ag30
ag8
ag16
ag18
ag2
ag10
ag22
ag12
ag14
ag32
ag28
ag20
ag24
ag4
aa(lp787
g34
ag24
ag6
ag30
ag18
ag4
ag12
ag20
ag8
ag2
ag14
ag22
ag28
ag32
ag16
ag26
ag10
aa(lp788
g22
ag20
ag18
ag8
ag14
ag34
ag6
ag10
ag24
ag12
ag26
ag32
ag28
ag4
ag2
ag30
ag16
aa(lp789
g4
ag28
ag18
ag22
ag2
ag20
ag10
ag34
ag26
ag8
ag6
ag16
ag14
ag30
ag32
ag12
ag24
aa(lp790
g22
ag12
ag16
ag8
ag2
ag20
ag4
ag28
ag18
ag14
ag26
ag10
ag30
ag34
ag32
ag6
ag24
aa(lp791
g8
ag26
ag14
ag28
ag12
ag16
ag18
ag6
ag34
ag32
ag4
ag30
ag20
ag24
ag2
ag10
ag22
aa(lp792
g6
ag12
ag34
ag30
ag2
ag10
ag24
ag4
ag20
ag16
ag18
ag28
ag26
ag8
ag22
ag14
ag32
aa(lp793
g14
ag16
ag34
ag12
ag20
ag18
ag2
ag32
ag24
ag30
ag22
ag6
ag28
ag4
ag8
ag26
ag10
aa(lp794
g22
ag16
ag6
ag8
ag34
ag14
ag28
ag32
ag10
ag20
ag30
ag4
ag24
ag18
ag2
ag26
ag12
aa(lp795
g26
ag12
ag20
ag10
ag4
ag6
ag22
ag2
ag18
ag24
ag16
ag8
ag34
ag30
ag28
ag14
ag32
aa(lp796
g2
ag30
ag28
ag18
ag16
ag8
ag12
ag20
ag24
ag32
ag10
ag6
ag26
ag34
ag4
ag14
ag22
aa(lp797
g16
ag34
ag6
ag18
ag26
ag4
ag10
ag2
ag14
ag8
ag24
ag30
ag28
ag12
ag32
ag22
ag20
aa(lp798
g8
ag32
ag10
ag24
ag6
ag34
ag26
ag22
ag20
ag4
ag14
ag16
ag2
ag12
ag28
ag30
ag18
aa(lp799
g18
ag22
ag28
ag8
ag10
ag20
ag6
ag12
ag24
ag30
ag2
ag32
ag34
ag16
ag26
ag14
ag4
aa(lp800
g32
ag12
ag10
ag16
ag26
ag8
ag6
ag4
ag2
ag30
ag24
ag28
ag22
ag14
ag20
ag18
ag34
aa(lp801
g22
ag8
ag28
ag18
ag12
ag30
ag10
ag16
ag6
ag24
ag26
ag2
ag34
ag4
ag14
ag20
ag32
aa(lp802
g2
ag16
ag24
ag34
ag18
ag10
ag30
ag28
ag8
ag26
ag22
ag14
ag6
ag12
ag4
ag20
ag32
aa(lp803
g2
ag14
ag8
ag10
ag20
ag22
ag34
ag4
ag26
ag28
ag32
ag18
ag6
ag12
ag30
ag16
ag24
aa(lp804
g32
ag22
ag14
ag16
ag26
ag20
ag10
ag12
ag30
ag18
ag2
ag8
ag34
ag28
ag6
ag4
ag24
aa(lp805
g6
ag34
ag24
ag2
ag32
ag8
ag28
ag20
ag22
ag14
ag12
ag30
ag16
ag10
ag26
ag18
ag4
aa(lp806
g18
ag34
ag6
ag16
ag22
ag30
ag14
ag28
ag2
ag32
ag10
ag8
ag24
ag20
ag4
ag12
ag26
aa(lp807
g12
ag32
ag14
ag16
ag6
ag22
ag2
ag26
ag30
ag24
ag8
ag18
ag34
ag20
ag10
ag4
ag28
aa(lp808
g32
ag24
ag28
ag18
ag26
ag6
ag20
ag2
ag30
ag12
ag10
ag8
ag34
ag22
ag16
ag14
ag4
aa(lp809
g18
ag34
ag10
ag26
ag4
ag20
ag32
ag22
ag28
ag12
ag8
ag24
ag16
ag14
ag2
ag30
ag6
aa(lp810
g30
ag34
ag4
ag14
ag32
ag2
ag24
ag6
ag16
ag20
ag18
ag26
ag22
ag10
ag8
ag28
ag12
aa(lp811
g34
ag32
ag2
ag8
ag24
ag30
ag14
ag28
ag16
ag20
ag10
ag6
ag22
ag26
ag4
ag18
ag12
aa(lp812
g24
ag12
ag32
ag28
ag20
ag26
ag10
ag8
ag4
ag34
ag18
ag2
ag16
ag30
ag14
ag22
ag6
aa(lp813
g22
ag28
ag2
ag20
ag26
ag10
ag6
ag24
ag32
ag16
ag4
ag34
ag18
ag30
ag14
ag12
ag8
aa(lp814
g2
ag18
ag10
ag28
ag16
ag8
ag4
ag22
ag34
ag30
ag32
ag20
ag12
ag24
ag26
ag14
ag6
aa(lp815
g16
ag28
ag20
ag18
ag24
ag12
ag14
ag30
ag8
ag2
ag32
ag34
ag10
ag22
ag26
ag4
ag6
aa(lp816
g14
ag10
ag22
ag20
ag8
ag18
ag32
ag16
ag30
ag6
ag2
ag26
ag12
ag34
ag28
ag4
ag24
aa(lp817
g30
ag6
ag32
ag28
ag18
ag20
ag22
ag14
ag10
ag2
ag16
ag12
ag34
ag8
ag24
ag26
ag4
aa(lp818
g16
ag30
ag22
ag24
ag4
ag20
ag34
ag14
ag12
ag2
ag6
ag18
ag32
ag26
ag8
ag10
ag28
aa(lp819
g28
ag20
ag4
ag24
ag32
ag6
ag16
ag22
ag10
ag34
ag18
ag2
ag30
ag26
ag8
ag14
ag12
aa(lp820
g24
ag10
ag12
ag28
ag22
ag34
ag6
ag4
ag8
ag18
ag14
ag16
ag26
ag32
ag20
ag30
ag2
aa(lp821
g8
ag10
ag24
ag2
ag18
ag32
ag6
ag16
ag4
ag12
ag30
ag20
ag26
ag28
ag34
ag22
ag14
aa(lp822
g28
ag26
ag16
ag14
ag12
ag18
ag22
ag24
ag10
ag30
ag32
ag2
ag20
ag6
ag8
ag34
ag4
aa(lp823
g16
ag22
ag20
ag32
ag24
ag18
ag2
ag4
ag30
ag14
ag28
ag8
ag12
ag34
ag10
ag26
ag6
aa(lp824
g16
ag12
ag2
ag28
ag4
ag22
ag8
ag34
ag24
ag20
ag26
ag18
ag32
ag6
ag10
ag30
ag14
aa(lp825
g18
ag2
ag6
ag28
ag8
ag22
ag34
ag4
ag26
ag30
ag20
ag10
ag32
ag16
ag12
ag14
ag24
aa(lp826
g34
ag20
ag18
ag8
ag2
ag10
ag12
ag6
ag14
ag4
ag28
ag22
ag24
ag26
ag32
ag16
ag30
aa(lp827
g22
ag4
ag10
ag26
ag2
ag30
ag20
ag28
ag24
ag6
ag18
ag14
ag32
ag34
ag8
ag12
ag16
aa(lp828
g6
ag24
ag34
ag20
ag8
ag2
ag4
ag22
ag26
ag10
ag14
ag18
ag28
ag12
ag32
ag16
ag30
aa(lp829
g22
ag16
ag20
ag10
ag30
ag12
ag32
ag26
ag14
ag24
ag18
ag2
ag8
ag6
ag4
ag34
ag28
aa(lp830
g28
ag8
ag12
ag18
ag4
ag26
ag2
ag34
ag16
ag22
ag14
ag30
ag20
ag32
ag6
ag24
ag10
aa(lp831
g14
ag26
ag16
ag4
ag8
ag2
ag12
ag28
ag32
ag20
ag10
ag30
ag6
ag22
ag24
ag34
ag18
aa(lp832
g16
ag28
ag4
ag20
ag32
ag2
ag6
ag30
ag18
ag8
ag22
ag34
ag26
ag14
ag12
ag24
ag10
aa(lp833
g12
ag14
ag30
ag20
ag10
ag16
ag22
ag28
ag4
ag32
ag18
ag6
ag26
ag8
ag34
ag2
ag24
aa(lp834
g20
ag30
ag8
ag34
ag32
ag28
ag14
ag4
ag22
ag2
ag16
ag18
ag6
ag10
ag24
ag12
ag26
aa(lp835
g32
ag14
ag8
ag28
ag20
ag34
ag26
ag22
ag30
ag18
ag16
ag12
ag24
ag10
ag6
ag2
ag4
aa(lp836
g8
ag30
ag32
ag28
ag34
ag16
ag6
ag4
ag20
ag14
ag18
ag2
ag26
ag10
ag12
ag22
ag24
aa(lp837
g22
ag34
ag14
ag28
ag32
ag18
ag16
ag6
ag20
ag24
ag26
ag30
ag4
ag2
ag12
ag10
ag8
aa(lp838
g30
ag6
ag18
ag16
ag8
ag14
ag12
ag4
ag34
ag32
ag26
ag2
ag10
ag20
ag24
ag28
ag22
aa(lp839
g10
ag28
ag22
ag2
ag30
ag18
ag6
ag20
ag16
ag12
ag14
ag24
ag34
ag32
ag4
ag8
ag26
aa(lp840
g6
ag32
ag20
ag24
ag34
ag18
ag14
ag30
ag2
ag4
ag22
ag28
ag16
ag26
ag10
ag8
ag12
aa(lp841
g12
ag32
ag22
ag6
ag34
ag26
ag30
ag10
ag28
ag14
ag16
ag4
ag24
ag2
ag20
ag8
ag18
aa(lp842
g30
ag10
ag4
ag6
ag8
ag26
ag14
ag20
ag22
ag32
ag16
ag34
ag18
ag24
ag28
ag2
ag12
aa(lp843
g6
ag32
ag34
ag18
ag4
ag8
ag22
ag28
ag30
ag14
ag12
ag16
ag24
ag10
ag2
ag26
ag20
aa(lp844
g4
ag30
ag34
ag28
ag12
ag8
ag10
ag20
ag18
ag16
ag24
ag22
ag26
ag6
ag32
ag14
ag2
aa(lp845
g14
ag6
ag16
ag24
ag2
ag32
ag26
ag22
ag18
ag10
ag20
ag30
ag34
ag12
ag28
ag8
ag4
aa(lp846
g22
ag10
ag20
ag14
ag12
ag28
ag32
ag24
ag26
ag34
ag6
ag16
ag8
ag30
ag2
ag18
ag4
aa(lp847
g10
ag6
ag24
ag28
ag4
ag12
ag34
ag18
ag20
ag8
ag26
ag32
ag30
ag2
ag14
ag16
ag22
aa(lp848
g6
ag24
ag16
ag10
ag12
ag26
ag22
ag2
ag30
ag32
ag4
ag20
ag14
ag28
ag18
ag34
ag8
aa(lp849
g34
ag8
ag18
ag2
ag28
ag26
ag6
ag10
ag32
ag24
ag16
ag30
ag12
ag20
ag14
ag22
ag4
aa(lp850
g22
ag30
ag12
ag26
ag34
ag8
ag16
ag24
ag20
ag28
ag2
ag10
ag4
ag18
ag32
ag6
ag14
aa(lp851
g4
ag24
ag14
ag12
ag26
ag6
ag20
ag34
ag8
ag10
ag30
ag2
ag28
ag22
ag18
ag32
ag16
aa(lp852
g22
ag12
ag26
ag34
ag28
ag32
ag14
ag4
ag8
ag16
ag30
ag2
ag24
ag10
ag6
ag18
ag20
aa(lp853
g20
ag4
ag34
ag2
ag18
ag32
ag6
ag16
ag10
ag24
ag8
ag14
ag12
ag26
ag30
ag22
ag28
aa(lp854
g20
ag10
ag16
ag30
ag32
ag8
ag18
ag4
ag14
ag6
ag12
ag2
ag28
ag34
ag24
ag22
ag26
aa(lp855
g28
ag6
ag22
ag12
ag34
ag18
ag20
ag10
ag30
ag8
ag32
ag14
ag2
ag16
ag4
ag24
ag26
aa(lp856
g6
ag2
ag14
ag10
ag30
ag26
ag4
ag16
ag34
ag22
ag18
ag8
ag20
ag28
ag24
ag12
ag32
aa(lp857
g28
ag26
ag18
ag2
ag10
ag12
ag16
ag6
ag8
ag30
ag24
ag20
ag32
ag34
ag14
ag4
ag22
aa(lp858
g30
ag12
ag32
ag4
ag24
ag6
ag10
ag16
ag34
ag26
ag20
ag18
ag28
ag22
ag8
ag14
ag2
aa(lp859
g24
ag20
ag14
ag4
ag8
ag12
ag30
ag10
ag18
ag32
ag28
ag2
ag16
ag34
ag6
ag22
ag26
aa(lp860
g30
ag16
ag10
ag12
ag22
ag14
ag24
ag20
ag8
ag32
ag6
ag28
ag2
ag18
ag26
ag34
ag4
aa(lp861
g26
ag10
ag32
ag6
ag2
ag24
ag16
ag20
ag22
ag30
ag18
ag34
ag14
ag28
ag12
ag4
ag8
aa(lp862
g34
ag2
ag22
ag8
ag26
ag10
ag32
ag24
ag12
ag20
ag4
ag14
ag30
ag28
ag6
ag18
ag16
aa(lp863
g10
ag2
ag32
ag14
ag22
ag8
ag12
ag24
ag6
ag26
ag4
ag30
ag20
ag16
ag18
ag34
ag28
aa(lp864
g28
ag12
ag8
ag30
ag24
ag16
ag22
ag4
ag18
ag26
ag14
ag20
ag34
ag2
ag32
ag6
ag10
aa(lp865
g34
ag30
ag22
ag32
ag12
ag24
ag8
ag16
ag2
ag28
ag18
ag4
ag6
ag10
ag20
ag14
ag26
aa(lp866
g16
ag34
ag32
ag30
ag14
ag2
ag12
ag20
ag4
ag28
ag26
ag10
ag18
ag8
ag22
ag6
ag24
aa(lp867
g10
ag28
ag24
ag22
ag32
ag30
ag4
ag12
ag14
ag16
ag8
ag18
ag34
ag2
ag26
ag6
ag20
aa(lp868
g30
ag20
ag16
ag32
ag28
ag10
ag4
ag6
ag34
ag18
ag14
ag26
ag8
ag24
ag22
ag12
ag2
aa(lp869
g14
ag6
ag16
ag10
ag24
ag22
ag8
ag2
ag12
ag18
ag34
ag4
ag32
ag30
ag28
ag20
ag26
aa(lp870
g12
ag30
ag34
ag16
ag24
ag2
ag28
ag4
ag32
ag10
ag20
ag18
ag8
ag14
ag6
ag22
ag26
aa(lp871
g10
ag12
ag6
ag4
ag16
ag2
ag14
ag24
ag18
ag20
ag32
ag22
ag30
ag28
ag8
ag26
ag34
aa(lp872
g26
ag34
ag24
ag2
ag10
ag6
ag32
ag4
ag22
ag8
ag16
ag18
ag20
ag30
ag12
ag28
ag14
aa(lp873
g6
ag28
ag10
ag30
ag4
ag22
ag18
ag16
ag8
ag14
ag12
ag26
ag34
ag24
ag20
ag32
ag2
aa(lp874
g26
ag28
ag24
ag22
ag32
ag30
ag16
ag8
ag20
ag12
ag18
ag4
ag10
ag14
ag6
ag34
ag2
aa(lp875
g30
ag8
ag14
ag26
ag28
ag6
ag22
ag18
ag20
ag16
ag12
ag32
ag10
ag24
ag4
ag34
ag2
aa(lp876
g28
ag12
ag24
ag2
ag22
ag10
ag4
ag6
ag26
ag18
ag34
ag20
ag8
ag16
ag30
ag14
ag32
aa(lp877
g22
ag32
ag20
ag4
ag24
ag26
ag16
ag10
ag30
ag12
ag34
ag28
ag14
ag8
ag18
ag6
ag2
aa(lp878
g12
ag8
ag14
ag28
ag18
ag10
ag32
ag16
ag22
ag26
ag34
ag24
ag30
ag4
ag2
ag6
ag20
aa(lp879
g28
ag34
ag26
ag2
ag30
ag22
ag6
ag8
ag16
ag20
ag4
ag10
ag14
ag32
ag12
ag24
ag18
aa(lp880
g24
ag8
ag14
ag10
ag22
ag16
ag34
ag6
ag32
ag18
ag20
ag26
ag30
ag28
ag12
ag2
ag4
aa(lp881
g28
ag8
ag14
ag26
ag24
ag2
ag6
ag34
ag10
ag32
ag20
ag30
ag16
ag22
ag12
ag4
ag18
aa(lp882
g30
ag8
ag4
ag6
ag22
ag26
ag16
ag14
ag20
ag32
ag2
ag28
ag24
ag10
ag34
ag18
ag12
aa(lp883
g22
ag16
ag20
ag28
ag10
ag18
ag34
ag6
ag26
ag2
ag32
ag4
ag14
ag8
ag12
ag30
ag24
aa(lp884
g22
ag26
ag32
ag14
ag18
ag28
ag4
ag2
ag10
ag6
ag30
ag8
ag16
ag12
ag24
ag20
ag34
aa(lp885
g32
ag16
ag26
ag12
ag18
ag6
ag2
ag4
ag30
ag20
ag24
ag8
ag22
ag28
ag14
ag34
ag10
aa(lp886
g2
ag10
ag14
ag18
ag30
ag22
ag8
ag16
ag32
ag12
ag26
ag6
ag34
ag28
ag24
ag20
ag4
aa(lp887
g28
ag16
ag24
ag30
ag26
ag6
ag8
ag34
ag18
ag14
ag2
ag20
ag32
ag12
ag4
ag22
ag10
aa(lp888
g18
ag8
ag22
ag20
ag16
ag4
ag28
ag30
ag6
ag2
ag10
ag32
ag12
ag34
ag24
ag14
ag26
aa(lp889
g8
ag28
ag34
ag22
ag2
ag6
ag14
ag20
ag26
ag18
ag16
ag24
ag30
ag10
ag12
ag32
ag4
aa(lp890
g30
ag12
ag14
ag28
ag18
ag10
ag20
ag6
ag32
ag26
ag4
ag2
ag22
ag8
ag24
ag34
ag16
aa(lp891
g34
ag30
ag24
ag10
ag6
ag4
ag28
ag20
ag32
ag8
ag26
ag14
ag16
ag12
ag22
ag2
ag18
aa(lp892
g16
ag14
ag20
ag34
ag10
ag4
ag30
ag32
ag18
ag22
ag8
ag6
ag26
ag12
ag2
ag28
ag24
aa(lp893
g28
ag8
ag32
ag34
ag22
ag12
ag20
ag24
ag30
ag26
ag2
ag10
ag6
ag16
ag14
ag18
ag4
aa(lp894
g4
ag6
ag32
ag34
ag8
ag26
ag16
ag12
ag2
ag30
ag22
ag10
ag18
ag24
ag14
ag20
ag28
aa(lp895
g26
ag24
ag22
ag30
ag4
ag28
ag12
ag2
ag20
ag16
ag34
ag10
ag6
ag8
ag32
ag18
ag14
aa(lp896
g4
ag20
ag32
ag24
ag34
ag8
ag18
ag2
ag14
ag6
ag22
ag28
ag30
ag12
ag10
ag26
ag16
aa(lp897
g16
ag20
ag8
ag2
ag26
ag34
ag10
ag12
ag22
ag14
ag24
ag18
ag30
ag4
ag28
ag6
ag32
aa(lp898
g2
ag24
ag4
ag14
ag18
ag6
ag16
ag22
ag28
ag20
ag26
ag8
ag30
ag10
ag12
ag34
ag32
aa(lp899
g22
ag8
ag6
ag28
ag12
ag26
ag16
ag18
ag34
ag14
ag10
ag20
ag32
ag2
ag4
ag30
ag24
aa(lp900
g4
ag6
ag24
ag32
ag26
ag2
ag12
ag10
ag8
ag16
ag14
ag28
ag18
ag34
ag22
ag30
ag20
aa(lp901
g28
ag22
ag18
ag16
ag12
ag34
ag8
ag6
ag24
ag4
ag20
ag26
ag10
ag30
ag2
ag32
ag14
aa(lp902
g14
ag10
ag18
ag34
ag24
ag4
ag28
ag20
ag32
ag30
ag16
ag2
ag22
ag12
ag8
ag26
ag6
aa(lp903
g26
ag10
ag6
ag20
ag22
ag8
ag30
ag14
ag32
ag24
ag16
ag28
ag2
ag18
ag34
ag12
ag4
aa(lp904
g4
ag24
ag16
ag28
ag32
ag8
ag12
ag22
ag18
ag14
ag2
ag6
ag20
ag34
ag30
ag10
ag26
aa(lp905
g30
ag34
ag16
ag4
ag14
ag32
ag22
ag24
ag12
ag28
ag6
ag10
ag18
ag26
ag8
ag2
ag20
aa(lp906
g30
ag8
ag20
ag24
ag12
ag4
ag32
ag18
ag16
ag28
ag22
ag26
ag2
ag6
ag14
ag34
ag10
aa(lp907
g22
ag14
ag20
ag16
ag10
ag28
ag18
ag4
ag6
ag30
ag24
ag26
ag34
ag2
ag8
ag12
ag32
aa(lp908
g22
ag8
ag18
ag28
ag16
ag24
ag2
ag32
ag4
ag26
ag6
ag30
ag12
ag34
ag10
ag14
ag20
aa(lp909
g16
ag12
ag20
ag10
ag32
ag24
ag30
ag2
ag4
ag22
ag28
ag8
ag34
ag26
ag18
ag14
ag6
aa(lp910
g8
ag6
ag24
ag34
ag14
ag22
ag30
ag16
ag18
ag20
ag32
ag2
ag10
ag4
ag12
ag28
ag26
aa(lp911
g8
ag28
ag18
ag26
ag34
ag14
ag32
ag16
ag12
ag30
ag10
ag6
ag22
ag24
ag2
ag4
ag20
aa(lp912
g4
ag30
ag14
ag22
ag6
ag2
ag18
ag16
ag8
ag26
ag32
ag28
ag10
ag24
ag20
ag34
ag12
aa(lp913
g4
ag8
ag32
ag14
ag16
ag12
ag20
ag34
ag30
ag2
ag6
ag28
ag22
ag10
ag24
ag26
ag18
aa(lp914
g30
ag6
ag16
ag28
ag20
ag34
ag26
ag32
ag12
ag24
ag2
ag18
ag22
ag14
ag10
ag4
ag8
aa(lp915
g22
ag12
ag6
ag2
ag14
ag34
ag32
ag30
ag8
ag28
ag10
ag24
ag20
ag16
ag26
ag4
ag18
aa(lp916
g24
ag16
ag4
ag30
ag14
ag2
ag34
ag20
ag32
ag18
ag8
ag12
ag10
ag26
ag22
ag28
ag6
aa(lp917
g18
ag34
ag2
ag10
ag22
ag30
ag12
ag6
ag8
ag4
ag32
ag14
ag26
ag20
ag28
ag24
ag16
aa(lp918
g14
ag10
ag28
ag16
ag22
ag32
ag12
ag26
ag20
ag24
ag4
ag18
ag30
ag6
ag8
ag34
ag2
aa(lp919
g30
ag26
ag14
ag6
ag16
ag4
ag2
ag10
ag20
ag22
ag12
ag28
ag18
ag34
ag24
ag8
ag32
aa(lp920
g32
ag10
ag26
ag16
ag6
ag12
ag14
ag4
ag8
ag24
ag2
ag28
ag30
ag22
ag20
ag34
ag18
aa(lp921
g26
ag10
ag2
ag24
ag8
ag12
ag30
ag28
ag34
ag32
ag4
ag6
ag20
ag16
ag22
ag18
ag14
aa(lp922
g22
ag20
ag26
ag34
ag24
ag16
ag12
ag32
ag18
ag14
ag10
ag28
ag2
ag30
ag8
ag4
ag6
aa(lp923
g26
ag34
ag12
ag32
ag28
ag24
ag2
ag6
ag8
ag16
ag10
ag4
ag22
ag18
ag30
ag20
ag14
aa(lp924
g12
ag20
ag22
ag28
ag14
ag24
ag4
ag10
ag34
ag6
ag32
ag8
ag16
ag2
ag18
ag30
ag26
aa(lp925
g28
ag8
ag2
ag10
ag18
ag24
ag14
ag26
ag34
ag12
ag6
ag22
ag32
ag4
ag16
ag20
ag30
aa(lp926
g14
ag28
ag22
ag32
ag12
ag18
ag24
ag16
ag30
ag34
ag10
ag2
ag20
ag4
ag6
ag26
ag8
aa(lp927
g10
ag24
ag34
ag12
ag2
ag32
ag28
ag20
ag4
ag22
ag8
ag6
ag26
ag16
ag18
ag30
ag14
aa(lp928
g34
ag18
ag16
ag2
ag4
ag28
ag30
ag24
ag20
ag10
ag14
ag12
ag8
ag26
ag22
ag6
ag32
aa(lp929
g12
ag16
ag2
ag6
ag34
ag20
ag24
ag28
ag18
ag32
ag26
ag22
ag10
ag14
ag30
ag8
ag4
aa(lp930
g16
ag28
ag6
ag24
ag20
ag22
ag34
ag32
ag14
ag18
ag10
ag2
ag12
ag8
ag26
ag30
ag4
aa(lp931
g32
ag4
ag12
ag8
ag34
ag20
ag10
ag2
ag6
ag24
ag14
ag26
ag16
ag18
ag30
ag28
ag22
aa(lp932
g10
ag8
ag6
ag24
ag16
ag18
ag32
ag28
ag4
ag12
ag22
ag34
ag14
ag20
ag30
ag2
ag26
aa(lp933
g30
ag4
ag12
ag8
ag10
ag22
ag18
ag6
ag34
ag24
ag20
ag28
ag32
ag14
ag2
ag26
ag16
aa(lp934
g16
ag34
ag8
ag18
ag20
ag10
ag4
ag28
ag22
ag2
ag14
ag26
ag24
ag12
ag32
ag6
ag30
aa(lp935
g4
ag24
ag8
ag32
ag28
ag30
ag22
ag10
ag18
ag20
ag12
ag16
ag2
ag26
ag6
ag14
ag34
aa(lp936
g14
ag4
ag30
ag28
ag26
ag32
ag2
ag10
ag8
ag12
ag20
ag16
ag34
ag18
ag6
ag22
ag24
aa(lp937
g24
ag2
ag8
ag4
ag6
ag10
ag32
ag20
ag14
ag22
ag34
ag12
ag26
ag18
ag16
ag28
ag30
aa(lp938
g14
ag16
ag2
ag34
ag30
ag24
ag10
ag22
ag28
ag20
ag12
ag6
ag32
ag4
ag26
ag18
ag8
aa(lp939
g12
ag18
ag4
ag2
ag6
ag22
ag26
ag20
ag30
ag28
ag16
ag8
ag14
ag24
ag10
ag34
ag32
aa(lp940
g16
ag32
ag10
ag22
ag14
ag20
ag24
ag30
ag18
ag12
ag34
ag26
ag28
ag6
ag8
ag2
ag4
aa(lp941
g12
ag34
ag14
ag28
ag30
ag26
ag24
ag16
ag32
ag18
ag4
ag6
ag8
ag10
ag2
ag22
ag20
aa(lp942
g30
ag2
ag28
ag4
ag34
ag16
ag20
ag18
ag10
ag22
ag8
ag24
ag12
ag14
ag32
ag6
ag26
aa(lp943
g32
ag16
ag22
ag6
ag24
ag30
ag20
ag2
ag4
ag18
ag28
ag26
ag8
ag12
ag34
ag10
ag14
aa(lp944
g24
ag10
ag16
ag26
ag34
ag4
ag20
ag6
ag30
ag14
ag12
ag2
ag22
ag28
ag8
ag18
ag32
aa(lp945
g8
ag32
ag20
ag34
ag6
ag26
ag16
ag4
ag28
ag2
ag22
ag14
ag10
ag12
ag18
ag30
ag24
aa(lp946
g26
ag16
ag14
ag2
ag12
ag6
ag4
ag10
ag22
ag30
ag34
ag32
ag18
ag24
ag8
ag28
ag20
aa(lp947
g10
ag6
ag34
ag2
ag12
ag18
ag32
ag14
ag22
ag30
ag24
ag16
ag4
ag26
ag8
ag20
ag28
aa(lp948
g16
ag20
ag28
ag24
ag30
ag8
ag18
ag32
ag12
ag26
ag34
ag2
ag22
ag4
ag10
ag14
ag6
aa(lp949
g22
ag6
ag30
ag10
ag14
ag26
ag2
ag34
ag28
ag24
ag16
ag32
ag20
ag4
ag8
ag18
ag12
aa(lp950
g28
ag8
ag24
ag26
ag34
ag10
ag2
ag20
ag4
ag32
ag22
ag18
ag6
ag12
ag14
ag16
ag30
aa(lp951
g10
ag16
ag24
ag20
ag14
ag28
ag32
ag34
ag12
ag6
ag30
ag4
ag8
ag2
ag18
ag26
ag22
aa(lp952
g14
ag32
ag18
ag22
ag34
ag8
ag20
ag2
ag12
ag6
ag26
ag28
ag16
ag10
ag4
ag30
ag24
aa(lp953
g26
ag16
ag18
ag30
ag24
ag10
ag4
ag32
ag2
ag22
ag14
ag34
ag6
ag20
ag28
ag8
ag12
aa(lp954
g26
ag14
ag6
ag32
ag10
ag8
ag2
ag24
ag28
ag20
ag18
ag30
ag34
ag12
ag4
ag16
ag22
aa(lp955
g12
ag16
ag30
ag24
ag10
ag28
ag4
ag6
ag22
ag32
ag8
ag20
ag18
ag34
ag2
ag26
ag14
aa(lp956
g12
ag20
ag6
ag4
ag2
ag28
ag8
ag24
ag34
ag14
ag30
ag22
ag18
ag32
ag26
ag16
ag10
aa(lp957
g34
ag26
ag14
ag18
ag24
ag10
ag30
ag32
ag16
ag20
ag2
ag6
ag28
ag8
ag12
ag4
ag22
aa(lp958
g28
ag12
ag2
ag26
ag24
ag10
ag16
ag34
ag32
ag22
ag30
ag6
ag18
ag8
ag20
ag14
ag4
aa(lp959
g26
ag34
ag6
ag4
ag22
ag18
ag20
ag24
ag30
ag10
ag32
ag16
ag14
ag2
ag8
ag12
ag28
aa(lp960
g14
ag28
ag34
ag30
ag12
ag24
ag32
ag2
ag10
ag16
ag4
ag20
ag22
ag6
ag8
ag26
ag18
aa(lp961
g6
ag34
ag12
ag24
ag26
ag10
ag8
ag30
ag28
ag20
ag2
ag32
ag18
ag14
ag22
ag16
ag4
aa(lp962
g14
ag12
ag10
ag24
ag22
ag20
ag28
ag18
ag34
ag26
ag4
ag32
ag16
ag6
ag8
ag30
ag2
aa(lp963
g2
ag28
ag4
ag22
ag18
ag12
ag10
ag6
ag14
ag34
ag16
ag8
ag26
ag32
ag24
ag30
ag20
aa(lp964
g30
ag4
ag24
ag20
ag8
ag22
ag26
ag2
ag34
ag18
ag14
ag12
ag10
ag6
ag28
ag32
ag16
aa(lp965
g20
ag12
ag32
ag26
ag16
ag14
ag2
ag6
ag8
ag24
ag28
ag22
ag4
ag34
ag30
ag18
ag10
aa(lp966
g2
ag30
ag20
ag28
ag22
ag24
ag18
ag10
ag8
ag14
ag32
ag6
ag34
ag4
ag16
ag12
ag26
aa(lp967
g34
ag4
ag26
ag28
ag2
ag24
ag18
ag16
ag20
ag14
ag6
ag22
ag32
ag8
ag30
ag10
ag12
aa(lp968
g24
ag34
ag8
ag4
ag12
ag10
ag18
ag20
ag2
ag14
ag16
ag6
ag28
ag26
ag22
ag30
ag32
aa(lp969
g24
ag4
ag10
ag34
ag18
ag6
ag8
ag14
ag28
ag16
ag26
ag12
ag22
ag20
ag2
ag30
ag32
aa(lp970
g26
ag4
ag20
ag30
ag22
ag32
ag34
ag2
ag28
ag18
ag16
ag12
ag8
ag6
ag24
ag14
ag10
aa(lp971
g12
ag8
ag4
ag18
ag26
ag34
ag2
ag24
ag32
ag14
ag6
ag20
ag10
ag28
ag16
ag30
ag22
aa(lp972
g10
ag34
ag24
ag12
ag22
ag8
ag4
ag18
ag16
ag6
ag28
ag20
ag30
ag32
ag14
ag2
ag26
aa(lp973
g26
ag22
ag28
ag16
ag20
ag24
ag8
ag6
ag34
ag4
ag14
ag12
ag30
ag10
ag2
ag32
ag18
aa(lp974
g28
ag18
ag24
ag6
ag8
ag20
ag22
ag14
ag4
ag30
ag26
ag10
ag12
ag2
ag34
ag16
ag32
aa(lp975
g18
ag32
ag6
ag4
ag8
ag2
ag20
ag24
ag28
ag14
ag10
ag30
ag12
ag22
ag34
ag16
ag26
aa(lp976
g34
ag12
ag18
ag20
ag28
ag24
ag8
ag14
ag30
ag4
ag32
ag22
ag10
ag6
ag16
ag2
ag26
aa(lp977
g6
ag32
ag18
ag20
ag8
ag2
ag34
ag4
ag10
ag24
ag16
ag26
ag28
ag14
ag22
ag12
ag30
aa(lp978
g6
ag16
ag32
ag18
ag30
ag24
ag10
ag28
ag2
ag22
ag8
ag4
ag12
ag26
ag14
ag34
ag20
aa(lp979
g8
ag2
ag28
ag26
ag14
ag22
ag10
ag34
ag12
ag32
ag20
ag6
ag30
ag24
ag4
ag16
ag18
aa(lp980
g32
ag4
ag28
ag18
ag12
ag24
ag10
ag8
ag6
ag14
ag30
ag22
ag2
ag16
ag20
ag34
ag26
aa(lp981
g14
ag20
ag34
ag8
ag24
ag32
ag18
ag6
ag10
ag30
ag26
ag16
ag28
ag12
ag2
ag22
ag4
aa(lp982
g34
ag32
ag28
ag24
ag2
ag14
ag18
ag30
ag6
ag8
ag26
ag16
ag12
ag20
ag4
ag10
ag22
aa(lp983
g22
ag34
ag24
ag20
ag32
ag30
ag10
ag16
ag12
ag26
ag6
ag18
ag8
ag14
ag28
ag2
ag4
aa(lp984
g4
ag28
ag26
ag8
ag34
ag30
ag2
ag18
ag16
ag20
ag6
ag12
ag32
ag24
ag22
ag10
ag14
aa(lp985
g10
ag14
ag34
ag8
ag26
ag32
ag20
ag16
ag6
ag28
ag30
ag2
ag18
ag12
ag4
ag24
ag22
aa(lp986
g8
ag16
ag12
ag24
ag20
ag22
ag6
ag10
ag32
ag26
ag2
ag14
ag4
ag18
ag30
ag34
ag28
aa(lp987
g10
ag20
ag30
ag2
ag16
ag8
ag28
ag24
ag6
ag26
ag34
ag22
ag32
ag4
ag18
ag12
ag14
aa(lp988
g12
ag34
ag2
ag26
ag28
ag14
ag8
ag30
ag6
ag10
ag20
ag32
ag22
ag4
ag16
ag18
ag24
aa(lp989
g18
ag2
ag16
ag30
ag12
ag20
ag22
ag24
ag6
ag26
ag10
ag28
ag14
ag34
ag4
ag32
ag8
aa(lp990
g14
ag4
ag32
ag34
ag18
ag20
ag2
ag24
ag6
ag28
ag10
ag16
ag8
ag30
ag22
ag26
ag12
aa(lp991
g12
ag32
ag10
ag28
ag2
ag26
ag20
ag6
ag22
ag30
ag4
ag16
ag24
ag14
ag8
ag18
ag34
aa(lp992
g8
ag24
ag14
ag22
ag34
ag20
ag4
ag6
ag30
ag2
ag28
ag18
ag10
ag32
ag26
ag12
ag16
aa(lp993
g16
ag20
ag12
ag30
ag8
ag28
ag26
ag2
ag10
ag18
ag14
ag34
ag22
ag24
ag6
ag32
ag4
aa(lp994
g34
ag4
ag26
ag8
ag24
ag16
ag14
ag22
ag20
ag6
ag2
ag32
ag28
ag10
ag18
ag30
ag12
aa(lp995
g2
ag32
ag4
ag20
ag18
ag6
ag34
ag26
ag22
ag28
ag24
ag14
ag8
ag30
ag10
ag16
ag12
aa(lp996
g10
ag20
ag12
ag28
ag4
ag8
ag22
ag14
ag34
ag26
ag32
ag6
ag30
ag18
ag2
ag16
ag24
aa(lp997
g10
ag30
ag26
ag12
ag34
ag32
ag2
ag20
ag16
ag22
ag28
ag24
ag14
ag4
ag6
ag18
ag8
aa(lp998
g8
ag32
ag22
ag12
ag24
ag6
ag20
ag34
ag30
ag28
ag2
ag14
ag18
ag10
ag16
ag4
ag26
aa(lp999
g14
ag22
ag16
ag32
ag6
ag26
ag24
ag18
ag12
ag2
ag10
ag28
ag20
ag8
ag34
ag4
ag30
aa(lp1000
g10
ag16
ag6
ag22
ag18
ag32
ag24
ag14
ag34
ag30
ag26
ag8
ag12
ag20
ag4
ag2
ag28
aa(lp1001
g14
ag10
ag20
ag30
ag4
ag26
ag18
ag28
ag22
ag6
ag12
ag16
ag2
ag8
ag24
ag34
ag32
aa(lp1002
g12
ag30
ag10
ag6
ag20
ag32
ag22
ag16
ag14
ag2
ag18
ag34
ag8
ag28
ag26
ag4
ag24
aa(lp1003
g32
ag26
ag12
ag6
ag2
ag22
ag18
ag24
ag30
ag16
ag10
ag28
ag4
ag20
ag8
ag14
ag34
aa(lp1004
g12
ag24
ag6
ag8
ag34
ag26
ag22
ag30
ag32
ag14
ag2
ag10
ag20
ag16
ag4
ag18
ag28
aa(lp1005
g4
ag20
ag6
ag16
ag26
ag22
ag14
ag24
ag30
ag10
ag12
ag18
ag8
ag28
ag2
ag32
ag34
aa(lp1006
g28
ag34
ag24
ag8
ag16
ag6
ag12
ag18
ag26
ag14
ag30
ag10
ag32
ag20
ag4
ag2
ag22
aa(lp1007
g14
ag34
ag30
ag26
ag16
ag6
ag4
ag28
ag18
ag22
ag24
ag20
ag32
ag8
ag12
ag10
ag2
aa(lp1008
g20
ag10
ag22
ag6
ag18
ag12
ag34
ag30
ag8
ag26
ag28
ag4
ag24
ag32
ag16
ag2
ag14
aa(lp1009
g24
ag2
ag34
ag4
ag20
ag16
ag12
ag28
ag26
ag18
ag32
ag22
ag30
ag8
ag14
ag10
ag6
aa(lp1010
g2
ag34
ag12
ag16
ag26
ag22
ag18
ag24
ag14
ag4
ag6
ag28
ag30
ag8
ag32
ag20
ag10
aa(lp1011
g18
ag22
ag14
ag34
ag20
ag2
ag26
ag16
ag6
ag12
ag32
ag8
ag4
ag24
ag30
ag28
ag10
aa(lp1012
g14
ag6
ag2
ag26
ag8
ag30
ag22
ag4
ag20
ag24
ag12
ag16
ag34
ag32
ag28
ag18
ag10
aa(lp1013
g12
ag22
ag14
ag26
ag20
ag6
ag30
ag4
ag16
ag24
ag18
ag2
ag32
ag8
ag34
ag28
ag10
aa(lp1014
g18
ag16
ag34
ag24
ag10
ag12
ag8
ag32
ag26
ag2
ag30
ag4
ag28
ag14
ag20
ag22
ag6
aa(lp1015
g26
ag4
ag16
ag28
ag6
ag30
ag8
ag34
ag32
ag24
ag2
ag14
ag10
ag20
ag22
ag18
ag12
aa(lp1016
g34
ag4
ag8
ag16
ag2
ag30
ag20
ag14
ag6
ag24
ag26
ag10
ag32
ag12
ag18
ag28
ag22
aa(lp1017
g32
ag6
ag34
ag28
ag20
ag8
ag4
ag24
ag26
ag18
ag30
ag10
ag22
ag12
ag14
ag2
ag16
aa(lp1018
g12
ag2
ag10
ag24
ag14
ag22
ag4
ag8
ag20
ag30
ag34
ag6
ag26
ag28
ag16
ag32
ag18
aa(lp1019
g34
ag32
ag4
ag12
ag18
ag20
ag22
ag30
ag8
ag6
ag16
ag2
ag10
ag14
ag26
ag24
ag28
aa(lp1020
g14
ag10
ag8
ag6
ag30
ag4
ag12
ag16
ag18
ag2
ag32
ag28
ag22
ag20
ag26
ag34
ag24
aa(lp1021
g28
ag4
ag6
ag20
ag24
ag22
ag12
ag10
ag14
ag2
ag32
ag16
ag34
ag8
ag30
ag18
ag26
aa(lp1022
g12
ag22
ag20
ag24
ag14
ag6
ag10
ag30
ag8
ag28
ag18
ag4
ag34
ag16
ag2
ag32
ag26
aa(lp1023
g8
ag16
ag32
ag34
ag12
ag18
ag24
ag30
ag26
ag20
ag22
ag2
ag14
ag10
ag28
ag6
ag4
aa(lp1024
g2
ag18
ag28
ag16
ag20
ag24
ag12
ag26
ag6
ag14
ag10
ag34
ag22
ag32
ag4
ag30
ag8
aa(lp1025
g10
ag26
ag14
ag12
ag16
ag22
ag24
ag4
ag6
ag28
ag2
ag8
ag18
ag32
ag34
ag20
ag30
aa(lp1026
g34
ag32
ag2
ag26
ag30
ag28
ag14
ag22
ag18
ag24
ag6
ag12
ag16
ag20
ag10
ag4
ag8
aa(lp1027
g22
ag12
ag26
ag24
ag32
ag20
ag2
ag18
ag6
ag8
ag14
ag16
ag10
ag4
ag34
ag28
ag30
aa(lp1028
g8
ag32
ag34
ag26
ag6
ag16
ag28
ag12
ag18
ag10
ag30
ag4
ag2
ag20
ag24
ag14
ag22
aa(lp1029
g26
ag2
ag6
ag12
ag24
ag18
ag30
ag22
ag10
ag28
ag32
ag34
ag4
ag8
ag20
ag16
ag14
aa(lp1030
g32
ag28
ag8
ag18
ag10
ag14
ag24
ag30
ag22
ag16
ag4
ag2
ag20
ag26
ag34
ag12
ag6
aa(lp1031
g32
ag8
ag20
ag18
ag4
ag22
ag34
ag6
ag28
ag16
ag2
ag30
ag14
ag26
ag12
ag24
ag10
aa(lp1032
g16
ag20
ag4
ag6
ag26
ag24
ag30
ag10
ag14
ag18
ag2
ag8
ag28
ag12
ag34
ag22
ag32
aa(lp1033
g32
ag18
ag20
ag6
ag28
ag14
ag26
ag30
ag4
ag22
ag2
ag12
ag24
ag10
ag16
ag34
ag8
aa(lp1034
g2
ag8
ag30
ag4
ag14
ag10
ag24
ag6
ag12
ag28
ag32
ag34
ag16
ag22
ag20
ag18
ag26
aa(lp1035
g24
ag34
ag32
ag6
ag28
ag8
ag20
ag30
ag16
ag18
ag12
ag4
ag14
ag26
ag22
ag10
ag2
aa(lp1036
g32
ag10
ag30
ag34
ag28
ag26
ag6
ag4
ag18
ag22
ag14
ag8
ag20
ag2
ag12
ag24
ag16
aa(lp1037
g34
ag2
ag8
ag30
ag14
ag20
ag16
ag10
ag24
ag26
ag12
ag4
ag22
ag18
ag6
ag28
ag32
aa(lp1038
g34
ag8
ag26
ag2
ag16
ag4
ag28
ag24
ag6
ag30
ag22
ag12
ag10
ag32
ag14
ag20
ag18
aa(lp1039
g6
ag8
ag28
ag2
ag30
ag12
ag32
ag20
ag18
ag16
ag14
ag22
ag34
ag24
ag10
ag4
ag26
aa(lp1040
g26
ag22
ag32
ag12
ag24
ag14
ag2
ag10
ag20
ag16
ag8
ag6
ag4
ag34
ag18
ag28
ag30
aa(lp1041
g24
ag26
ag6
ag22
ag20
ag10
ag30
ag12
ag18
ag32
ag2
ag28
ag8
ag14
ag4
ag16
ag34
aa(lp1042
g18
ag30
ag32
ag22
ag20
ag6
ag26
ag2
ag12
ag10
ag4
ag14
ag28
ag16
ag34
ag24
ag8
aa(lp1043
g20
ag12
ag4
ag32
ag2
ag22
ag30
ag6
ag8
ag24
ag14
ag16
ag28
ag18
ag26
ag10
ag34
aa(lp1044
g28
ag2
ag20
ag26
ag22
ag4
ag24
ag12
ag8
ag16
ag10
ag34
ag6
ag32
ag14
ag30
ag18
aa(lp1045
g32
ag2
ag30
ag10
ag6
ag18
ag22
ag34
ag4
ag20
ag8
ag12
ag14
ag26
ag16
ag28
ag24
aa(lp1046
g16
ag14
ag24
ag4
ag26
ag32
ag30
ag6
ag12
ag22
ag2
ag20
ag18
ag28
ag10
ag34
ag8
aa(lp1047
g20
ag18
ag14
ag30
ag26
ag28
ag22
ag10
ag32
ag16
ag4
ag12
ag34
ag8
ag2
ag24
ag6
aa(lp1048
g28
ag14
ag26
ag4
ag18
ag20
ag6
ag16
ag32
ag2
ag8
ag10
ag12
ag34
ag22
ag30
ag24
aa(lp1049
g32
ag10
ag8
ag24
ag26
ag12
ag2
ag30
ag34
ag28
ag6
ag4
ag16
ag14
ag22
ag18
ag20
aa(lp1050
g22
ag10
ag32
ag28
ag34
ag16
ag14
ag6
ag12
ag30
ag20
ag18
ag24
ag2
ag26
ag4
ag8
aa(lp1051
g32
ag18
ag28
ag2
ag20
ag4
ag22
ag14
ag26
ag16
ag30
ag34
ag6
ag8
ag24
ag10
ag12
aa(lp1052
g26
ag4
ag18
ag22
ag24
ag28
ag12
ag34
ag30
ag6
ag16
ag10
ag20
ag8
ag32
ag14
ag2
aa(lp1053
g20
ag2
ag12
ag34
ag14
ag30
ag8
ag18
ag4
ag24
ag26
ag32
ag28
ag10
ag6
ag16
ag22
aa(lp1054
g20
ag12
ag16
ag2
ag6
ag14
ag24
ag32
ag8
ag10
ag18
ag28
ag4
ag34
ag26
ag22
ag30
aa(lp1055
g26
ag18
ag16
ag24
ag8
ag28
ag14
ag34
ag32
ag4
ag20
ag22
ag2
ag12
ag10
ag30
ag6
aa(lp1056
g8
ag10
ag26
ag12
ag22
ag6
ag14
ag28
ag30
ag16
ag24
ag18
ag20
ag32
ag4
ag34
ag2
aa(lp1057
g22
ag8
ag34
ag20
ag18
ag26
ag4
ag24
ag30
ag12
ag6
ag16
ag28
ag2
ag32
ag14
ag10
aa(lp1058
g20
ag8
ag32
ag4
ag16
ag22
ag30
ag18
ag14
ag2
ag10
ag6
ag12
ag28
ag34
ag26
ag24
aa.